---
triple:          'arm64-apple-darwin'
binary-path:     '/Users/CONG HAU/DSA/TH/BT 70% 2/output/9. LNR II'
relocations:
  - { offsetInCU: 0x513C, offset: 0x513C, size: 0x8, addend: 0x0, symName: __ZNSt3__124__put_character_sequenceB8ue170006IcNS_11char_traitsIcEEEERNS_13basic_ostreamIT_T0_EES7_PKS4_m, symObjAddr: 0x45A8, symBinAddr: 0x100006784, symSize: 0x1F4 }
  - { offsetInCU: 0x6BFE, offset: 0x6BFE, size: 0x8, addend: 0x0, symName: __ZNSt3__1lsB8ue170006INS_11char_traitsIcEEEERNS_13basic_ostreamIcT_EES6_PKc, symObjAddr: 0x414, symBinAddr: 0x1000025F0, symSize: 0x48 }
  - { offsetInCU: 0x6C44, offset: 0x6C44, size: 0x8, addend: 0x0, symName: __ZNSt3__112__to_addressB8ue170006IP4NodeEEPT_S4_, symObjAddr: 0xF14, symBinAddr: 0x1000030F0, symSize: 0x14 }
  - { offsetInCU: 0x6C79, offset: 0x6C79, size: 0x8, addend: 0x0, symName: __ZNSt3__112__to_addressB8ue170006IPP4NodeEEPT_S5_, symObjAddr: 0x11E0, symBinAddr: 0x1000033BC, symSize: 0x14 }
  - { offsetInCU: 0x6CAE, offset: 0x6CAE, size: 0x8, addend: 0x0, symName: __ZNSt3__130__libcpp_is_constant_evaluatedB8ue170006Ev, symObjAddr: 0x1278, symBinAddr: 0x100003454, symSize: 0xC }
  - { offsetInCU: 0x6CCB, offset: 0x6CCB, size: 0x8, addend: 0x0, symName: __ZNSt3__119__libcpp_deallocateB8ue170006EPvmm, symObjAddr: 0x1284, symBinAddr: 0x100003460, symSize: 0x30 }
  - { offsetInCU: 0x6D13, offset: 0x6D13, size: 0x8, addend: 0x0, symName: __ZNSt3__127__do_deallocate_handle_sizeB8ue170006IJEEEvPvmDpT_, symObjAddr: 0x12B4, symBinAddr: 0x100003490, symSize: 0x28 }
  - { offsetInCU: 0x6D51, offset: 0x6D51, size: 0x8, addend: 0x0, symName: __ZNSt3__124__libcpp_operator_deleteB8ue170006IJPvEEEvDpT_, symObjAddr: 0x12DC, symBinAddr: 0x1000034B8, symSize: 0x24 }
  - { offsetInCU: 0x6D86, offset: 0x6D86, size: 0x8, addend: 0x0, symName: __ZNSt3__13maxB8ue170006ImEERKT_S3_S3_, symObjAddr: 0x234C, symBinAddr: 0x100004528, symSize: 0x2C }
  - { offsetInCU: 0x7252, offset: 0x7252, size: 0x8, addend: 0x0, symName: __ZNSt3__14swapB8ue170006IPPP4NodeEEvRT_S6_, symObjAddr: 0x29AC, symBinAddr: 0x100004B88, symSize: 0x3C }
  - { offsetInCU: 0x72A3, offset: 0x72A3, size: 0x8, addend: 0x0, symName: __ZNSt3__14moveB8ue170006IPPP4NodeS4_EET0_T_S6_S5_, symObjAddr: 0x2ADC, symBinAddr: 0x100004CB8, symSize: 0x40 }
  - { offsetInCU: 0x7319, offset: 0x7319, size: 0x8, addend: 0x0, symName: __ZNSt3__16__moveB8ue170006INS_17_ClassicAlgPolicyEPPP4NodeS5_S5_EENS_4pairIT0_T2_EES7_T1_S8_, symObjAddr: 0x2BE4, symBinAddr: 0x100004DC0, symSize: 0x44 }
  - { offsetInCU: 0x7385, offset: 0x7385, size: 0x8, addend: 0x0, symName: __ZNSt3__123__dispatch_copy_or_moveB8ue170006INS_17_ClassicAlgPolicyENS_11__move_loopIS1_EENS_14__move_trivialEPPP4NodeS8_S8_EENS_4pairIT2_T4_EESA_T3_SB_, symObjAddr: 0x2C28, symBinAddr: 0x100004E04, symSize: 0x44 }
  - { offsetInCU: 0x7403, offset: 0x7403, size: 0x8, addend: 0x0, symName: __ZNSt3__121__unwrap_and_dispatchB8ue170006INS_10__overloadINS_11__move_loopINS_17_ClassicAlgPolicyEEENS_14__move_trivialEEEPPP4NodeSA_SA_Li0EEENS_4pairIT0_T2_EESC_T1_SD_, symObjAddr: 0x2C6C, symBinAddr: 0x100004E48, symSize: 0xB4 }
  - { offsetInCU: 0x7491, offset: 0x7491, size: 0x8, addend: 0x0, symName: __ZNSt3__114__unwrap_rangeB8ue170006IPPP4NodeS4_EENS_4pairIT0_S6_EET_S8_, symObjAddr: 0x2D20, symBinAddr: 0x100004EFC, symSize: 0x60 }
  - { offsetInCU: 0x75D0, offset: 0x75D0, size: 0x8, addend: 0x0, symName: __ZNSt3__113__unwrap_iterB8ue170006IPPP4NodeNS_18__unwrap_iter_implIS4_Lb1EEELi0EEEDTclsrT0_8__unwrapclsr3stdE7declvalIT_EEEES8_, symObjAddr: 0x2DC8, symBinAddr: 0x100004FA4, symSize: 0x24 }
  - { offsetInCU: 0x7614, offset: 0x7614, size: 0x8, addend: 0x0, symName: __ZNSt3__19make_pairB8ue170006IPPP4NodeS4_EENS_4pairINS_18__unwrap_ref_decayIT_E4typeENS6_IT0_E4typeEEEOS7_OSA_, symObjAddr: 0x2DEC, symBinAddr: 0x100004FC8, symSize: 0x38 }
  - { offsetInCU: 0x7663, offset: 0x7663, size: 0x8, addend: 0x0, symName: __ZNSt3__114__rewrap_rangeB8ue170006IPPP4NodeS4_EET_S5_T0_, symObjAddr: 0x2E24, symBinAddr: 0x100005000, symSize: 0x2C }
  - { offsetInCU: 0x76AF, offset: 0x76AF, size: 0x8, addend: 0x0, symName: __ZNSt3__113__rewrap_iterB8ue170006IPPP4NodeS4_NS_18__unwrap_iter_implIS4_Lb1EEEEET_S7_T0_, symObjAddr: 0x2E50, symBinAddr: 0x10000502C, symSize: 0x50 }
  - { offsetInCU: 0x7704, offset: 0x7704, size: 0x8, addend: 0x0, symName: __ZNSt3__119__copy_trivial_implB8ue170006IPP4NodeS3_EENS_4pairIPT_PT0_EES6_S6_S8_, symObjAddr: 0x2EA0, symBinAddr: 0x10000507C, symSize: 0x80 }
  - { offsetInCU: 0x776C, offset: 0x776C, size: 0x8, addend: 0x0, symName: __ZNSt3__119__constexpr_memmoveB8ue170006IPP4NodeS3_Li0EEEPT_S5_PT0_NS_15__element_countE, symObjAddr: 0x2F20, symBinAddr: 0x1000050FC, symSize: 0xA0 }
  - { offsetInCU: 0x77DA, offset: 0x77DA, size: 0x8, addend: 0x0, symName: __ZNSt3__19make_pairB8ue170006IRPPP4NodeS4_EENS_4pairINS_18__unwrap_ref_decayIT_E4typeENS7_IT0_E4typeEEEOS8_OSB_, symObjAddr: 0x2FC0, symBinAddr: 0x10000519C, symSize: 0x38 }
  - { offsetInCU: 0x787C, offset: 0x787C, size: 0x8, addend: 0x0, symName: __ZNSt3__18distanceB8ue170006INS_13move_iteratorIPPP4NodeEEEENS_15iterator_traitsIT_E15difference_typeES8_S8_, symObjAddr: 0x31C0, symBinAddr: 0x10000539C, symSize: 0x3C }
  - { offsetInCU: 0x78BF, offset: 0x78BF, size: 0x8, addend: 0x0, symName: __ZNSt3__110__distanceB8ue170006INS_13move_iteratorIPPP4NodeEEEENS_15iterator_traitsIT_E15difference_typeES8_S8_NS_26random_access_iterator_tagE, symObjAddr: 0x33C4, symBinAddr: 0x1000055A0, symSize: 0x30 }
  - { offsetInCU: 0x790C, offset: 0x790C, size: 0x8, addend: 0x0, symName: __ZNSt3__1miB8ue170006IPPP4NodeS4_EENS_13move_iteratorIT_E15difference_typeERKS7_RKNS5_IT0_EE, symObjAddr: 0x33F4, symBinAddr: 0x1000055D0, symSize: 0x48 }
  - { offsetInCU: 0x795B, offset: 0x795B, size: 0x8, addend: 0x0, symName: __ZNSt3__117__libcpp_allocateB8ue170006Emm, symObjAddr: 0x3578, symBinAddr: 0x100005754, symSize: 0x28 }
  - { offsetInCU: 0x7998, offset: 0x7998, size: 0x8, addend: 0x0, symName: __ZNSt3__121__libcpp_operator_newB8ue170006IJmEEEPvDpT_, symObjAddr: 0x35B4, symBinAddr: 0x100005790, symSize: 0x24 }
  - { offsetInCU: 0x79D1, offset: 0x79D1, size: 0x8, addend: 0x0, symName: __ZNSt3__113move_backwardB8ue170006IPPP4NodeS4_EET0_T_S6_S5_, symObjAddr: 0x35D8, symBinAddr: 0x1000057B4, symSize: 0x40 }
  - { offsetInCU: 0x7A2B, offset: 0x7A2B, size: 0x8, addend: 0x0, symName: __ZNSt3__115__move_backwardB8ue170006INS_17_ClassicAlgPolicyEPPP4NodeS5_S5_EENS_4pairIT0_T2_EES7_T1_S8_, symObjAddr: 0x3618, symBinAddr: 0x1000057F4, symSize: 0x44 }
  - { offsetInCU: 0x7A97, offset: 0x7A97, size: 0x8, addend: 0x0, symName: __ZNSt3__123__dispatch_copy_or_moveB8ue170006INS_17_ClassicAlgPolicyENS_20__move_backward_loopIS1_EENS_23__move_backward_trivialEPPP4NodeS8_S8_EENS_4pairIT2_T4_EESA_T3_SB_, symObjAddr: 0x365C, symBinAddr: 0x100005838, symSize: 0x44 }
  - { offsetInCU: 0x7B15, offset: 0x7B15, size: 0x8, addend: 0x0, symName: __ZNSt3__121__unwrap_and_dispatchB8ue170006INS_10__overloadINS_20__move_backward_loopINS_17_ClassicAlgPolicyEEENS_23__move_backward_trivialEEEPPP4NodeSA_SA_Li0EEENS_4pairIT0_T2_EESC_T1_SD_, symObjAddr: 0x36A0, symBinAddr: 0x10000587C, symSize: 0xB4 }
  - { offsetInCU: 0x7BE9, offset: 0x7BE9, size: 0x8, addend: 0x0, symName: __ZNSt3__128__copy_backward_trivial_implB8ue170006IPP4NodeS3_EENS_4pairIPT_PT0_EES6_S6_S8_, symObjAddr: 0x379C, symBinAddr: 0x100005978, symSize: 0x90 }
  - { offsetInCU: 0x7C51, offset: 0x7C51, size: 0x8, addend: 0x0, symName: __ZNSt3__19make_pairB8ue170006IRPPP4NodeS5_EENS_4pairINS_18__unwrap_ref_decayIT_E4typeENS7_IT0_E4typeEEEOS8_OSB_, symObjAddr: 0x382C, symBinAddr: 0x100005A08, symSize: 0x38 }
  - { offsetInCU: 0x7CA0, offset: 0x7CA0, size: 0x8, addend: 0x0, symName: __ZNSt3__13maxB8ue170006ImNS_6__lessIvvEEEERKT_S5_S5_T0_, symObjAddr: 0x38A8, symBinAddr: 0x100005A84, symSize: 0x54 }
  - { offsetInCU: 0x7D3F, offset: 0x7D3F, size: 0x8, addend: 0x0, symName: __ZNSt3__119__allocate_at_leastB8ue170006INS_9allocatorIPP4NodeEEEENS_19__allocation_resultINS_16allocator_traitsIT_E7pointerEEERS8_m, symObjAddr: 0x3A40, symBinAddr: 0x100005C1C, symSize: 0x40 }
  - { offsetInCU: 0x7D82, offset: 0x7D82, size: 0x8, addend: 0x0, symName: __ZNSt3__116__pad_and_outputB8ue170006IcNS_11char_traitsIcEEEENS_19ostreambuf_iteratorIT_T0_EES6_PKS4_S8_S8_RNS_8ios_baseES4_, symObjAddr: 0x4800, symBinAddr: 0x1000069DC, symSize: 0x248 }
  - { offsetInCU: 0x7E51, offset: 0x7E51, size: 0x8, addend: 0x0, symName: __ZNSt3__112__to_addressB8ue170006IKcEEPT_S3_, symObjAddr: 0x4D70, symBinAddr: 0x100006F4C, symSize: 0x14 }
  - { offsetInCU: 0x7EB9, offset: 0x7EB9, size: 0x8, addend: 0x0, symName: __ZNSt3__19use_facetB8ue170006INS_5ctypeIcEEEERKT_RKNS_6localeE, symObjAddr: 0x5048, symBinAddr: 0x100007224, symSize: 0x2C }
  - { offsetInCU: 0x8386, offset: 0x8386, size: 0x8, addend: 0x0, symName: __ZNSt3__118__constexpr_strlenB8ue170006EPKc, symObjAddr: 0x50E0, symBinAddr: 0x1000072BC, symSize: 0x24 }
  - { offsetInCU: 0x83B2, offset: 0x83B2, size: 0x8, addend: 0x0, symName: __ZNSt3__1neB8ue170006ERKNS_16__deque_iteratorIP4NodePS2_RS2_PS3_lLl512EEES8_, symObjAddr: 0x5514, symBinAddr: 0x1000076F0, symSize: 0x34 }
  - { offsetInCU: 0x83EF, offset: 0x83EF, size: 0x8, addend: 0x0, symName: __ZNSt3__1eqB8ue170006ERKNS_16__deque_iteratorIP4NodePS2_RS2_PS3_lLl512EEES8_, symObjAddr: 0x55B8, symBinAddr: 0x100007794, symSize: 0x30 }
  - { offsetInCU: 0x853D, offset: 0x853D, size: 0x8, addend: 0x0, symName: __ZSt28__throw_bad_array_new_lengthB8ue170006v, symObjAddr: 0x3544, symBinAddr: 0x100005720, symSize: 0x34 }
  - { offsetInCU: 0xAE3B, offset: 0xAE3B, size: 0x8, addend: 0x0, symName: _main, symObjAddr: 0x0, symBinAddr: 0x1000021DC, symSize: 0x88 }
  - { offsetInCU: 0xAED4, offset: 0xAED4, size: 0x8, addend: 0x0, symName: __ZN8Solution6insertEP4Nodei, symObjAddr: 0x88, symBinAddr: 0x100002264, symSize: 0x104 }
  - { offsetInCU: 0xAF33, offset: 0xAF33, size: 0x8, addend: 0x0, symName: __ZN8Solution7inOrderEP4Node, symObjAddr: 0x18C, symBinAddr: 0x100002368, symSize: 0x164 }
  - { offsetInCU: 0xAF84, offset: 0xAF84, size: 0x8, addend: 0x0, symName: __ZN4NodeC1Ei, symObjAddr: 0x2F0, symBinAddr: 0x1000024CC, symSize: 0x34 }
  - { offsetInCU: 0xAFBC, offset: 0xAFBC, size: 0x8, addend: 0x0, symName: __ZN4NodeC2Ei, symObjAddr: 0x324, symBinAddr: 0x100002500, symSize: 0x28 }
  - { offsetInCU: 0xB021, offset: 0xB021, size: 0x8, addend: 0x0, symName: __ZNSt3__15stackIP4NodeNS_5dequeIS2_NS_9allocatorIS2_EEEEEC1B8ue170006Ev, symObjAddr: 0x34C, symBinAddr: 0x100002528, symSize: 0x2C }
  - { offsetInCU: 0xB04B, offset: 0xB04B, size: 0x8, addend: 0x0, symName: __ZNSt3__15stackIP4NodeNS_5dequeIS2_NS_9allocatorIS2_EEEEE4pushB8ue170006ERKS2_, symObjAddr: 0x378, symBinAddr: 0x100002554, symSize: 0x2C }
  - { offsetInCU: 0xB080, offset: 0xB080, size: 0x8, addend: 0x0, symName: __ZNKSt3__15stackIP4NodeNS_5dequeIS2_NS_9allocatorIS2_EEEEE5emptyB8ue170006Ev, symObjAddr: 0x3A4, symBinAddr: 0x100002580, symSize: 0x28 }
  - { offsetInCU: 0xB0A6, offset: 0xB0A6, size: 0x8, addend: 0x0, symName: __ZNSt3__15stackIP4NodeNS_5dequeIS2_NS_9allocatorIS2_EEEEE3topB8ue170006Ev, symObjAddr: 0x3CC, symBinAddr: 0x1000025A8, symSize: 0x24 }
  - { offsetInCU: 0xB0CC, offset: 0xB0CC, size: 0x8, addend: 0x0, symName: __ZNSt3__15stackIP4NodeNS_5dequeIS2_NS_9allocatorIS2_EEEEE3popB8ue170006Ev, symObjAddr: 0x3F0, symBinAddr: 0x1000025CC, symSize: 0x24 }
  - { offsetInCU: 0xB0F2, offset: 0xB0F2, size: 0x8, addend: 0x0, symName: __ZNSt3__15stackIP4NodeNS_5dequeIS2_NS_9allocatorIS2_EEEEED1Ev, symObjAddr: 0x45C, symBinAddr: 0x100002638, symSize: 0x2C }
  - { offsetInCU: 0xB11E, offset: 0xB11E, size: 0x8, addend: 0x0, symName: __ZNSt3__15stackIP4NodeNS_5dequeIS2_NS_9allocatorIS2_EEEEEC2B8ue170006Ev, symObjAddr: 0x494, symBinAddr: 0x100002670, symSize: 0x2C }
  - { offsetInCU: 0xB148, offset: 0xB148, size: 0x8, addend: 0x0, symName: __ZNSt3__15dequeIP4NodeNS_9allocatorIS2_EEEC1B8ue170006Ev, symObjAddr: 0x4C0, symBinAddr: 0x10000269C, symSize: 0x2C }
  - { offsetInCU: 0xB172, offset: 0xB172, size: 0x8, addend: 0x0, symName: __ZNSt3__15dequeIP4NodeNS_9allocatorIS2_EEEC2B8ue170006Ev, symObjAddr: 0x4EC, symBinAddr: 0x1000026C8, symSize: 0x84 }
  - { offsetInCU: 0xB19C, offset: 0xB19C, size: 0x8, addend: 0x0, symName: __ZNSt3__114__split_bufferIPP4NodeNS_9allocatorIS3_EEEC1B8ue170006Ev, symObjAddr: 0x570, symBinAddr: 0x10000274C, symSize: 0x2C }
  - { offsetInCU: 0xB1D0, offset: 0xB1D0, size: 0x8, addend: 0x0, symName: __ZNSt3__117__compressed_pairImNS_9allocatorIP4NodeEEEC1B8ue170006IiNS_18__default_init_tagEEEOT_OT0_, symObjAddr: 0x59C, symBinAddr: 0x100002778, symSize: 0x3C }
  - { offsetInCU: 0xB228, offset: 0xB228, size: 0x8, addend: 0x0, symName: __ZNKSt3__15dequeIP4NodeNS_9allocatorIS2_EEE14__annotate_newB8ue170006Em, symObjAddr: 0x5D8, symBinAddr: 0x1000027B4, symSize: 0xDC }
  - { offsetInCU: 0xB25D, offset: 0xB25D, size: 0x8, addend: 0x0, symName: __ZNSt3__114__split_bufferIPP4NodeNS_9allocatorIS3_EEED1Ev, symObjAddr: 0x6B4, symBinAddr: 0x100002890, symSize: 0x2C }
  - { offsetInCU: 0xB289, offset: 0xB289, size: 0x8, addend: 0x0, symName: __ZNSt3__114__split_bufferIPP4NodeNS_9allocatorIS3_EEEC2B8ue170006Ev, symObjAddr: 0x6E0, symBinAddr: 0x1000028BC, symSize: 0x48 }
  - { offsetInCU: 0xB2B8, offset: 0xB2B8, size: 0x8, addend: 0x0, symName: __ZNSt3__117__compressed_pairIPPP4NodeNS_9allocatorIS3_EEEC1B8ue170006IDnNS_18__default_init_tagEEEOT_OT0_, symObjAddr: 0x728, symBinAddr: 0x100002904, symSize: 0x3C }
  - { offsetInCU: 0xB310, offset: 0xB310, size: 0x8, addend: 0x0, symName: __ZNSt3__117__compressed_pairIPPP4NodeNS_9allocatorIS3_EEEC2B8ue170006IDnNS_18__default_init_tagEEEOT_OT0_, symObjAddr: 0x764, symBinAddr: 0x100002940, symSize: 0x40 }
  - { offsetInCU: 0xB368, offset: 0xB368, size: 0x8, addend: 0x0, symName: __ZNSt3__122__compressed_pair_elemIPPP4NodeLi0ELb0EEC2B8ue170006IDnvEEOT_, symObjAddr: 0x7A4, symBinAddr: 0x100002980, symSize: 0x1C }
  - { offsetInCU: 0xB3AA, offset: 0xB3AA, size: 0x8, addend: 0x0, symName: __ZNSt3__122__compressed_pair_elemINS_9allocatorIPP4NodeEELi1ELb1EEC2B8ue170006ENS_18__default_init_tagE, symObjAddr: 0x7C0, symBinAddr: 0x10000299C, symSize: 0x2C }
  - { offsetInCU: 0xB3DE, offset: 0xB3DE, size: 0x8, addend: 0x0, symName: __ZNSt3__19allocatorIPP4NodeEC2B8ue170006Ev, symObjAddr: 0x7EC, symBinAddr: 0x1000029C8, symSize: 0x2C }
  - { offsetInCU: 0xB408, offset: 0xB408, size: 0x8, addend: 0x0, symName: __ZNSt3__116__non_trivial_ifILb1ENS_9allocatorIPP4NodeEEEC2B8ue170006Ev, symObjAddr: 0x818, symBinAddr: 0x1000029F4, symSize: 0x14 }
  - { offsetInCU: 0xB432, offset: 0xB432, size: 0x8, addend: 0x0, symName: __ZNSt3__117__compressed_pairImNS_9allocatorIP4NodeEEEC2B8ue170006IiNS_18__default_init_tagEEEOT_OT0_, symObjAddr: 0x82C, symBinAddr: 0x100002A08, symSize: 0x40 }
  - { offsetInCU: 0xB48A, offset: 0xB48A, size: 0x8, addend: 0x0, symName: __ZNSt3__122__compressed_pair_elemImLi0ELb0EEC2B8ue170006IivEEOT_, symObjAddr: 0x86C, symBinAddr: 0x100002A48, symSize: 0x24 }
  - { offsetInCU: 0xB4CC, offset: 0xB4CC, size: 0x8, addend: 0x0, symName: __ZNSt3__122__compressed_pair_elemINS_9allocatorIP4NodeEELi1ELb1EEC2B8ue170006ENS_18__default_init_tagE, symObjAddr: 0x890, symBinAddr: 0x100002A6C, symSize: 0x2C }
  - { offsetInCU: 0xB500, offset: 0xB500, size: 0x8, addend: 0x0, symName: __ZNSt3__19allocatorIP4NodeEC2B8ue170006Ev, symObjAddr: 0x8BC, symBinAddr: 0x100002A98, symSize: 0x2C }
  - { offsetInCU: 0xB52A, offset: 0xB52A, size: 0x8, addend: 0x0, symName: __ZNSt3__116__non_trivial_ifILb1ENS_9allocatorIP4NodeEEEC2B8ue170006Ev, symObjAddr: 0x8E8, symBinAddr: 0x100002AC4, symSize: 0x14 }
  - { offsetInCU: 0xB554, offset: 0xB554, size: 0x8, addend: 0x0, symName: __ZNKSt3__15dequeIP4NodeNS_9allocatorIS2_EEE18__annotate_from_toB8ue170006EmmNS5_22__asan_annotation_typeENS5_23__asan_annotation_placeE, symObjAddr: 0x8FC, symBinAddr: 0x100002AD8, symSize: 0x580 }
  - { offsetInCU: 0xB712, offset: 0xB712, size: 0x8, addend: 0x0, symName: __ZNKSt3__114__split_bufferIPP4NodeNS_9allocatorIS3_EEE4sizeB8ue170006Ev, symObjAddr: 0xE7C, symBinAddr: 0x100003058, symSize: 0x28 }
  - { offsetInCU: 0xB738, offset: 0xB738, size: 0x8, addend: 0x0, symName: __ZNKSt3__114__split_bufferIPP4NodeNS_9allocatorIS3_EEE5beginB8ue170006Ev, symObjAddr: 0xEA4, symBinAddr: 0x100003080, symSize: 0x18 }
  - { offsetInCU: 0xB75E, offset: 0xB75E, size: 0x8, addend: 0x0, symName: __ZNKSt3__15dequeIP4NodeNS_9allocatorIS2_EEE4sizeB8ue170006Ev, symObjAddr: 0xEBC, symBinAddr: 0x100003098, symSize: 0x28 }
  - { offsetInCU: 0xB784, offset: 0xB784, size: 0x8, addend: 0x0, symName: __ZNKSt3__15dequeIP4NodeNS_9allocatorIS2_EEE5emptyB8ue170006Ev, symObjAddr: 0xEE4, symBinAddr: 0x1000030C0, symSize: 0x30 }
  - { offsetInCU: 0xB7AA, offset: 0xB7AA, size: 0x8, addend: 0x0, symName: __ZNKSt3__15dequeIP4NodeNS_9allocatorIS2_EEE44__annotate_double_ended_contiguous_containerB8ue170006EPKvS7_S7_S7_S7_S7_, symObjAddr: 0xF28, symBinAddr: 0x100003104, symSize: 0x28 }
  - { offsetInCU: 0xB818, offset: 0xB818, size: 0x8, addend: 0x0, symName: __ZNKSt3__15dequeIP4NodeNS_9allocatorIS2_EEE6__sizeB8ue170006Ev, symObjAddr: 0xF50, symBinAddr: 0x10000312C, symSize: 0x28 }
  - { offsetInCU: 0xB83E, offset: 0xB83E, size: 0x8, addend: 0x0, symName: __ZNKSt3__117__compressed_pairImNS_9allocatorIP4NodeEEE5firstB8ue170006Ev, symObjAddr: 0xF78, symBinAddr: 0x100003154, symSize: 0x24 }
  - { offsetInCU: 0xB864, offset: 0xB864, size: 0x8, addend: 0x0, symName: __ZNKSt3__122__compressed_pair_elemImLi0ELb0EE5__getB8ue170006Ev, symObjAddr: 0xF9C, symBinAddr: 0x100003178, symSize: 0x14 }
  - { offsetInCU: 0xB88A, offset: 0xB88A, size: 0x8, addend: 0x0, symName: __ZNSt3__114__split_bufferIPP4NodeNS_9allocatorIS3_EEED2Ev, symObjAddr: 0xFB0, symBinAddr: 0x10000318C, symSize: 0x80 }
  - { offsetInCU: 0xB8B6, offset: 0xB8B6, size: 0x8, addend: 0x0, symName: __ZNSt3__114__split_bufferIPP4NodeNS_9allocatorIS3_EEE5clearB8ue170006Ev, symObjAddr: 0x1030, symBinAddr: 0x10000320C, symSize: 0x28 }
  - { offsetInCU: 0xB8DC, offset: 0xB8DC, size: 0x8, addend: 0x0, symName: __ZNSt3__116allocator_traitsINS_9allocatorIPP4NodeEEE10deallocateB8ue170006ERS5_PS4_m, symObjAddr: 0x1058, symBinAddr: 0x100003234, symSize: 0x34 }
  - { offsetInCU: 0xB91E, offset: 0xB91E, size: 0x8, addend: 0x0, symName: __ZNSt3__114__split_bufferIPP4NodeNS_9allocatorIS3_EEE7__allocB8ue170006Ev, symObjAddr: 0x108C, symBinAddr: 0x100003268, symSize: 0x28 }
  - { offsetInCU: 0xB944, offset: 0xB944, size: 0x8, addend: 0x0, symName: __ZNKSt3__114__split_bufferIPP4NodeNS_9allocatorIS3_EEE8capacityB8ue170006Ev, symObjAddr: 0x10B4, symBinAddr: 0x100003290, symSize: 0x40 }
  - { offsetInCU: 0xB96A, offset: 0xB96A, size: 0x8, addend: 0x0, symName: __ZNSt3__114__split_bufferIPP4NodeNS_9allocatorIS3_EEE17__destruct_at_endB8ue170006EPS3_, symObjAddr: 0x10F4, symBinAddr: 0x1000032D0, symSize: 0x2C }
  - { offsetInCU: 0xB99E, offset: 0xB99E, size: 0x8, addend: 0x0, symName: __ZNSt3__114__split_bufferIPP4NodeNS_9allocatorIS3_EEE17__destruct_at_endB8ue170006EPS3_NS_17integral_constantIbLb0EEE, symObjAddr: 0x1120, symBinAddr: 0x1000032FC, symSize: 0x94 }
  - { offsetInCU: 0xB9DE, offset: 0xB9DE, size: 0x8, addend: 0x0, symName: __ZNSt3__116allocator_traitsINS_9allocatorIPP4NodeEEE7destroyB8ue170006IS4_vEEvRS5_PT_, symObjAddr: 0x11B4, symBinAddr: 0x100003390, symSize: 0x2C }
  - { offsetInCU: 0xBA1B, offset: 0xBA1B, size: 0x8, addend: 0x0, symName: __ZNSt3__19allocatorIPP4NodeE7destroyB8ue170006EPS3_, symObjAddr: 0x11F4, symBinAddr: 0x1000033D0, symSize: 0x14 }
  - { offsetInCU: 0xBA4F, offset: 0xBA4F, size: 0x8, addend: 0x0, symName: __ZNSt3__19allocatorIPP4NodeE10deallocateB8ue170006EPS3_m, symObjAddr: 0x1208, symBinAddr: 0x1000033E4, symSize: 0x70 }
  - { offsetInCU: 0xBA91, offset: 0xBA91, size: 0x8, addend: 0x0, symName: __ZNSt3__117__compressed_pairIPPP4NodeNS_9allocatorIS3_EEE6secondB8ue170006Ev, symObjAddr: 0x1300, symBinAddr: 0x1000034DC, symSize: 0x24 }
  - { offsetInCU: 0xBAB7, offset: 0xBAB7, size: 0x8, addend: 0x0, symName: __ZNSt3__122__compressed_pair_elemINS_9allocatorIPP4NodeEELi1ELb1EE5__getB8ue170006Ev, symObjAddr: 0x1324, symBinAddr: 0x100003500, symSize: 0x14 }
  - { offsetInCU: 0xBADD, offset: 0xBADD, size: 0x8, addend: 0x0, symName: __ZNKSt3__114__split_bufferIPP4NodeNS_9allocatorIS3_EEE9__end_capB8ue170006Ev, symObjAddr: 0x1338, symBinAddr: 0x100003514, symSize: 0x28 }
  - { offsetInCU: 0xBB03, offset: 0xBB03, size: 0x8, addend: 0x0, symName: __ZNKSt3__117__compressed_pairIPPP4NodeNS_9allocatorIS3_EEE5firstB8ue170006Ev, symObjAddr: 0x1360, symBinAddr: 0x10000353C, symSize: 0x24 }
  - { offsetInCU: 0xBB29, offset: 0xBB29, size: 0x8, addend: 0x0, symName: __ZNKSt3__122__compressed_pair_elemIPPP4NodeLi0ELb0EE5__getB8ue170006Ev, symObjAddr: 0x1384, symBinAddr: 0x100003560, symSize: 0x14 }
  - { offsetInCU: 0xBB4F, offset: 0xBB4F, size: 0x8, addend: 0x0, symName: __ZNSt3__15dequeIP4NodeNS_9allocatorIS2_EEE9push_backERKS2_, symObjAddr: 0x1398, symBinAddr: 0x100003574, symSize: 0xAC }
  - { offsetInCU: 0xBB95, offset: 0xBB95, size: 0x8, addend: 0x0, symName: __ZNSt3__15dequeIP4NodeNS_9allocatorIS2_EEE7__allocB8ue170006Ev, symObjAddr: 0x1444, symBinAddr: 0x100003620, symSize: 0x28 }
  - { offsetInCU: 0xBBBB, offset: 0xBBBB, size: 0x8, addend: 0x0, symName: __ZNKSt3__15dequeIP4NodeNS_9allocatorIS2_EEE12__back_spareB8ue170006Ev, symObjAddr: 0x146C, symBinAddr: 0x100003648, symSize: 0x54 }
  - { offsetInCU: 0xBBE1, offset: 0xBBE1, size: 0x8, addend: 0x0, symName: __ZNSt3__15dequeIP4NodeNS_9allocatorIS2_EEE19__add_back_capacityEv, symObjAddr: 0x14C0, symBinAddr: 0x10000369C, symSize: 0x364 }
  - { offsetInCU: 0xBC99, offset: 0xBC99, size: 0x8, addend: 0x0, symName: __ZNKSt3__15dequeIP4NodeNS_9allocatorIS2_EEE24__annotate_increase_backB8ue170006Em, symObjAddr: 0x1824, symBinAddr: 0x100003A00, symSize: 0x7C }
  - { offsetInCU: 0xBCCE, offset: 0xBCCE, size: 0x8, addend: 0x0, symName: __ZNSt3__116allocator_traitsINS_9allocatorIP4NodeEEE9constructB8ue170006IS3_JRKS3_EvEEvRS4_PT_DpOT0_, symObjAddr: 0x18A0, symBinAddr: 0x100003A7C, symSize: 0x34 }
  - { offsetInCU: 0xBD25, offset: 0xBD25, size: 0x8, addend: 0x0, symName: __ZNSt3__15dequeIP4NodeNS_9allocatorIS2_EEE3endB8ue170006Ev, symObjAddr: 0x18D4, symBinAddr: 0x100003AB0, symSize: 0xE0 }
  - { offsetInCU: 0xBD69, offset: 0xBD69, size: 0x8, addend: 0x0, symName: __ZNKSt3__116__deque_iteratorIP4NodePS2_RS2_PS3_lLl512EEdeB8ue170006Ev, symObjAddr: 0x19B4, symBinAddr: 0x100003B90, symSize: 0x18 }
  - { offsetInCU: 0xBD8F, offset: 0xBD8F, size: 0x8, addend: 0x0, symName: __ZNSt3__15dequeIP4NodeNS_9allocatorIS2_EEE6__sizeB8ue170006Ev, symObjAddr: 0x19CC, symBinAddr: 0x100003BA8, symSize: 0x28 }
  - { offsetInCU: 0xBDB5, offset: 0xBDB5, size: 0x8, addend: 0x0, symName: __ZNSt3__117__compressed_pairImNS_9allocatorIP4NodeEEE6secondB8ue170006Ev, symObjAddr: 0x19F4, symBinAddr: 0x100003BD0, symSize: 0x24 }
  - { offsetInCU: 0xBDDB, offset: 0xBDDB, size: 0x8, addend: 0x0, symName: __ZNSt3__122__compressed_pair_elemINS_9allocatorIP4NodeEELi1ELb1EE5__getB8ue170006Ev, symObjAddr: 0x1A18, symBinAddr: 0x100003BF4, symSize: 0x14 }
  - { offsetInCU: 0xBE01, offset: 0xBE01, size: 0x8, addend: 0x0, symName: __ZNKSt3__15dequeIP4NodeNS_9allocatorIS2_EEE10__capacityB8ue170006Ev, symObjAddr: 0x1A2C, symBinAddr: 0x100003C08, symSize: 0x60 }
  - { offsetInCU: 0xBE27, offset: 0xBE27, size: 0x8, addend: 0x0, symName: __ZNKSt3__15dequeIP4NodeNS_9allocatorIS2_EEE13__front_spareB8ue170006Ev, symObjAddr: 0x1A8C, symBinAddr: 0x100003C68, symSize: 0x18 }
  - { offsetInCU: 0xBE4D, offset: 0xBE4D, size: 0x8, addend: 0x0, symName: __ZNSt3__114__split_bufferIPP4NodeNS_9allocatorIS3_EEE5frontB8ue170006Ev, symObjAddr: 0x1AA4, symBinAddr: 0x100003C80, symSize: 0x18 }
  - { offsetInCU: 0xBE73, offset: 0xBE73, size: 0x8, addend: 0x0, symName: __ZNSt3__114__split_bufferIPP4NodeNS_9allocatorIS3_EEE9pop_frontB8ue170006Ev, symObjAddr: 0x1ABC, symBinAddr: 0x100003C98, symSize: 0x2C }
  - { offsetInCU: 0xBE99, offset: 0xBE99, size: 0x8, addend: 0x0, symName: __ZNSt3__114__split_bufferIPP4NodeNS_9allocatorIS3_EEE9push_backB8ue170006ERKS3_, symObjAddr: 0x1AE8, symBinAddr: 0x100003CC4, symSize: 0x270 }
  - { offsetInCU: 0xBF12, offset: 0xBF12, size: 0x8, addend: 0x0, symName: __ZNKSt3__114__split_bufferIPP4NodeNS_9allocatorIS3_EEE12__back_spareB8ue170006Ev, symObjAddr: 0x1D58, symBinAddr: 0x100003F34, symSize: 0x40 }
  - { offsetInCU: 0xBF38, offset: 0xBF38, size: 0x8, addend: 0x0, symName: __ZNSt3__114__split_bufferIPP4NodeNS_9allocatorIS3_EEE9push_backEOS3_, symObjAddr: 0x1D98, symBinAddr: 0x100003F74, symSize: 0x270 }
  - { offsetInCU: 0xBFB1, offset: 0xBFB1, size: 0x8, addend: 0x0, symName: __ZNSt3__116allocator_traitsINS_9allocatorIP4NodeEEE8allocateB8ue170006ERS4_m, symObjAddr: 0x2008, symBinAddr: 0x1000041E4, symSize: 0x2C }
  - { offsetInCU: 0xBFE4, offset: 0xBFE4, size: 0x8, addend: 0x0, symName: __ZNSt3__114__split_bufferIPP4NodeNS_9allocatorIS3_EEE10push_frontEOS3_, symObjAddr: 0x2034, symBinAddr: 0x100004210, symSize: 0x26C }
  - { offsetInCU: 0xC05D, offset: 0xC05D, size: 0x8, addend: 0x0, symName: __ZNKSt3__15dequeIP4NodeNS_9allocatorIS2_EEE22__annotate_whole_blockB8ue170006EmNS5_22__asan_annotation_typeE, symObjAddr: 0x22A0, symBinAddr: 0x10000447C, symSize: 0xAC }
  - { offsetInCU: 0xC0CE, offset: 0xC0CE, size: 0x8, addend: 0x0, symName: __ZNSt3__114__split_bufferIPP4NodeRNS_9allocatorIS3_EEEC1EmmS6_, symObjAddr: 0x2378, symBinAddr: 0x100004554, symSize: 0x44 }
  - { offsetInCU: 0xC129, offset: 0xC129, size: 0x8, addend: 0x0, symName: __ZNSt3__122__allocator_destructorINS_9allocatorIP4NodeEEEC1B8ue170006ERS4_m, symObjAddr: 0x23BC, symBinAddr: 0x100004598, symSize: 0x3C }
  - { offsetInCU: 0xC1F1, offset: 0xC1F1, size: 0x8, addend: 0x0, symName: __ZNSt3__110unique_ptrIPP4NodeNS_22__allocator_destructorINS_9allocatorIS2_EEEEEC1B8ue170006ILb1EvEES3_NS_16__dependent_typeINS_27__unique_ptr_deleter_sfinaeIS7_EEXT_EE20__good_rval_ref_typeE, symObjAddr: 0x23F8, symBinAddr: 0x1000045D4, symSize: 0x3C }
  - { offsetInCU: 0xC242, offset: 0xC242, size: 0x8, addend: 0x0, symName: __ZNSt3__114__split_bufferIPP4NodeRNS_9allocatorIS3_EEE9push_backEOS3_, symObjAddr: 0x2434, symBinAddr: 0x100004610, symSize: 0x270 }
  - { offsetInCU: 0xC2BB, offset: 0xC2BB, size: 0x8, addend: 0x0, symName: __ZNKSt3__110unique_ptrIPP4NodeNS_22__allocator_destructorINS_9allocatorIS2_EEEEE3getB8ue170006Ev, symObjAddr: 0x26A4, symBinAddr: 0x100004880, symSize: 0x28 }
  - { offsetInCU: 0xC2E1, offset: 0xC2E1, size: 0x8, addend: 0x0, symName: __ZNSt3__110unique_ptrIPP4NodeNS_22__allocator_destructorINS_9allocatorIS2_EEEEE7releaseB8ue170006Ev, symObjAddr: 0x26CC, symBinAddr: 0x1000048A8, symSize: 0x44 }
  - { offsetInCU: 0xC316, offset: 0xC316, size: 0x8, addend: 0x0, symName: __ZNSt3__114__split_bufferIPP4NodeNS_9allocatorIS3_EEE3endB8ue170006Ev, symObjAddr: 0x2710, symBinAddr: 0x1000048EC, symSize: 0x18 }
  - { offsetInCU: 0xC33C, offset: 0xC33C, size: 0x8, addend: 0x0, symName: __ZNSt3__114__split_bufferIPP4NodeNS_9allocatorIS3_EEE5beginB8ue170006Ev, symObjAddr: 0x2728, symBinAddr: 0x100004904, symSize: 0x18 }
  - { offsetInCU: 0xC362, offset: 0xC362, size: 0x8, addend: 0x0, symName: __ZNSt3__114__split_bufferIPP4NodeRNS_9allocatorIS3_EEE10push_frontERKS3_, symObjAddr: 0x2740, symBinAddr: 0x10000491C, symSize: 0x26C }
  - { offsetInCU: 0xC3DB, offset: 0xC3DB, size: 0x8, addend: 0x0, symName: __ZNSt3__114__split_bufferIPP4NodeNS_9allocatorIS3_EEE9__end_capB8ue170006Ev, symObjAddr: 0x29E8, symBinAddr: 0x100004BC4, symSize: 0x28 }
  - { offsetInCU: 0xC401, offset: 0xC401, size: 0x8, addend: 0x0, symName: __ZNSt3__114__split_bufferIPP4NodeRNS_9allocatorIS3_EEE9__end_capB8ue170006Ev, symObjAddr: 0x2A10, symBinAddr: 0x100004BEC, symSize: 0x28 }
  - { offsetInCU: 0xC427, offset: 0xC427, size: 0x8, addend: 0x0, symName: __ZNSt3__110unique_ptrIPP4NodeNS_22__allocator_destructorINS_9allocatorIS2_EEEEED1B8ue170006Ev, symObjAddr: 0x2A38, symBinAddr: 0x100004C14, symSize: 0x2C }
  - { offsetInCU: 0xC451, offset: 0xC451, size: 0x8, addend: 0x0, symName: __ZNSt3__114__split_bufferIPP4NodeRNS_9allocatorIS3_EEED1Ev, symObjAddr: 0x2A64, symBinAddr: 0x100004C40, symSize: 0x2C }
  - { offsetInCU: 0xC47D, offset: 0xC47D, size: 0x8, addend: 0x0, symName: __ZNSt3__114__split_bufferIPP4NodeNS_9allocatorIS3_EEE19__destruct_at_beginB8ue170006EPS3_, symObjAddr: 0x2A90, symBinAddr: 0x100004C6C, symSize: 0x2C }
  - { offsetInCU: 0xC4B1, offset: 0xC4B1, size: 0x8, addend: 0x0, symName: __ZNSt3__114__split_bufferIPP4NodeNS_9allocatorIS3_EEE19__destruct_at_beginEPS3_NS_17integral_constantIbLb1EEE, symObjAddr: 0x2ABC, symBinAddr: 0x100004C98, symSize: 0x20 }
  - { offsetInCU: 0xC4F1, offset: 0xC4F1, size: 0x8, addend: 0x0, symName: __ZNSt3__114__split_bufferIPP4NodeRNS_9allocatorIS3_EEE18__construct_at_endINS_13move_iteratorIPS3_EEEENS_9enable_ifIXsr31__has_forward_iterator_categoryIT_EE5valueEvE4typeESD_SD_, symObjAddr: 0x2B1C, symBinAddr: 0x100004CF8, symSize: 0x60 }
  - { offsetInCU: 0xC53E, offset: 0xC53E, size: 0x8, addend: 0x0, symName: __ZNSt3__113move_iteratorIPPP4NodeEC1B8ue170006ES4_, symObjAddr: 0x2B7C, symBinAddr: 0x100004D58, symSize: 0x34 }
  - { offsetInCU: 0xC576, offset: 0xC576, size: 0x8, addend: 0x0, symName: __ZNSt3__116allocator_traitsINS_9allocatorIPP4NodeEEE9constructB8ue170006IS4_JRKS4_EvEEvRS5_PT_DpOT0_, symObjAddr: 0x2BB0, symBinAddr: 0x100004D8C, symSize: 0x34 }
  - { offsetInCU: 0xC5F0, offset: 0xC5F0, size: 0x8, addend: 0x0, symName: __ZNKSt3__114__move_trivialclB8ue170006IPP4NodeS4_Li0EEENS_4pairIPT_PT0_EES7_S7_S9_, symObjAddr: 0x2D80, symBinAddr: 0x100004F5C, symSize: 0x48 }
  - { offsetInCU: 0xC658, offset: 0xC658, size: 0x8, addend: 0x0, symName: __ZNSt3__14pairIPPP4NodeS4_EC1B8ue170006ERKS4_S7_, symObjAddr: 0x2FF8, symBinAddr: 0x1000051D4, symSize: 0x3C }
  - { offsetInCU: 0xC69E, offset: 0xC69E, size: 0x8, addend: 0x0, symName: __ZNSt3__14pairIPPP4NodeS4_EC2B8ue170006ERKS4_S7_, symObjAddr: 0x3034, symBinAddr: 0x100005210, symSize: 0x34 }
  - { offsetInCU: 0xC6E4, offset: 0xC6E4, size: 0x8, addend: 0x0, symName: __ZNSt3__118__unwrap_iter_implIPPP4NodeLb1EE8__unwrapB8ue170006ES4_, symObjAddr: 0x3068, symBinAddr: 0x100005244, symSize: 0x24 }
  - { offsetInCU: 0xC707, offset: 0xC707, size: 0x8, addend: 0x0, symName: __ZNSt3__118__unwrap_iter_implIPPP4NodeLb1EE8__rewrapB8ue170006ES4_S4_, symObjAddr: 0x308C, symBinAddr: 0x100005268, symSize: 0x50 }
  - { offsetInCU: 0xC738, offset: 0xC738, size: 0x8, addend: 0x0, symName: __ZNSt3__114__split_bufferIPP4NodeRNS_9allocatorIS3_EEE28__construct_at_end_with_sizeINS_13move_iteratorIPS3_EEEEvT_m, symObjAddr: 0x30DC, symBinAddr: 0x1000052B8, symSize: 0xE4 }
  - { offsetInCU: 0xC79E, offset: 0xC79E, size: 0x8, addend: 0x0, symName: __ZNSt3__114__split_bufferIPP4NodeRNS_9allocatorIS3_EEE21_ConstructTransactionC1B8ue170006EPPS3_m, symObjAddr: 0x31FC, symBinAddr: 0x1000053D8, symSize: 0x3C }
  - { offsetInCU: 0xC7E4, offset: 0xC7E4, size: 0x8, addend: 0x0, symName: __ZNSt3__116allocator_traitsINS_9allocatorIPP4NodeEEE9constructB8ue170006IS4_JS4_EvEEvRS5_PT_DpOT0_, symObjAddr: 0x3238, symBinAddr: 0x100005414, symSize: 0x34 }
  - { offsetInCU: 0xC83B, offset: 0xC83B, size: 0x8, addend: 0x0, symName: __ZNSt3__114__split_bufferIPP4NodeRNS_9allocatorIS3_EEE7__allocB8ue170006Ev, symObjAddr: 0x326C, symBinAddr: 0x100005448, symSize: 0x28 }
  - { offsetInCU: 0xC861, offset: 0xC861, size: 0x8, addend: 0x0, symName: __ZNKSt3__113move_iteratorIPPP4NodeEdeB8ue170006Ev, symObjAddr: 0x3294, symBinAddr: 0x100005470, symSize: 0x18 }
  - { offsetInCU: 0xC887, offset: 0xC887, size: 0x8, addend: 0x0, symName: __ZNSt3__113move_iteratorIPPP4NodeEppB8ue170006Ev, symObjAddr: 0x32AC, symBinAddr: 0x100005488, symSize: 0x20 }
  - { offsetInCU: 0xC8AD, offset: 0xC8AD, size: 0x8, addend: 0x0, symName: __ZNSt3__114__split_bufferIPP4NodeRNS_9allocatorIS3_EEE21_ConstructTransactionD1B8ue170006Ev, symObjAddr: 0x32CC, symBinAddr: 0x1000054A8, symSize: 0x2C }
  - { offsetInCU: 0xC8D7, offset: 0xC8D7, size: 0x8, addend: 0x0, symName: __ZNSt3__114__split_bufferIPP4NodeRNS_9allocatorIS3_EEE21_ConstructTransactionC2B8ue170006EPPS3_m, symObjAddr: 0x32F8, symBinAddr: 0x1000054D4, symSize: 0x44 }
  - { offsetInCU: 0xC91D, offset: 0xC91D, size: 0x8, addend: 0x0, symName: __ZNSt3__19allocatorIPP4NodeE9constructB8ue170006IS3_JS3_EEEvPT_DpOT0_, symObjAddr: 0x333C, symBinAddr: 0x100005518, symSize: 0x28 }
  - { offsetInCU: 0xC973, offset: 0xC973, size: 0x8, addend: 0x0, symName: __ZNSt3__117__compressed_pairIPPP4NodeRNS_9allocatorIS3_EEE6secondB8ue170006Ev, symObjAddr: 0x3364, symBinAddr: 0x100005540, symSize: 0x28 }
  - { offsetInCU: 0xC999, offset: 0xC999, size: 0x8, addend: 0x0, symName: __ZNSt3__122__compressed_pair_elemIRNS_9allocatorIPP4NodeEELi1ELb0EE5__getB8ue170006Ev, symObjAddr: 0x338C, symBinAddr: 0x100005568, symSize: 0x18 }
  - { offsetInCU: 0xC9BF, offset: 0xC9BF, size: 0x8, addend: 0x0, symName: __ZNSt3__114__split_bufferIPP4NodeRNS_9allocatorIS3_EEE21_ConstructTransactionD2B8ue170006Ev, symObjAddr: 0x33A4, symBinAddr: 0x100005580, symSize: 0x20 }
  - { offsetInCU: 0xC9E9, offset: 0xC9E9, size: 0x8, addend: 0x0, symName: __ZNKSt3__113move_iteratorIPPP4NodeE4baseB8ue170006Ev, symObjAddr: 0x343C, symBinAddr: 0x100005618, symSize: 0x18 }
  - { offsetInCU: 0xCA0F, offset: 0xCA0F, size: 0x8, addend: 0x0, symName: __ZNSt3__113move_iteratorIPPP4NodeEC2B8ue170006ES4_, symObjAddr: 0x3454, symBinAddr: 0x100005630, symSize: 0x20 }
  - { offsetInCU: 0xCA47, offset: 0xCA47, size: 0x8, addend: 0x0, symName: __ZNSt3__19allocatorIPP4NodeE9constructB8ue170006IS3_JRKS3_EEEvPT_DpOT0_, symObjAddr: 0x3474, symBinAddr: 0x100005650, symSize: 0x28 }
  - { offsetInCU: 0xCA9D, offset: 0xCA9D, size: 0x8, addend: 0x0, symName: __ZNSt3__19allocatorIP4NodeE8allocateB8ue170006Em, symObjAddr: 0x349C, symBinAddr: 0x100005678, symSize: 0x84 }
  - { offsetInCU: 0xCADB, offset: 0xCADB, size: 0x8, addend: 0x0, symName: __ZNSt3__116allocator_traitsINS_9allocatorIP4NodeEEE8max_sizeB8ue170006IS4_vEEmRKS4_, symObjAddr: 0x3520, symBinAddr: 0x1000056FC, symSize: 0x24 }
  - { offsetInCU: 0xCB09, offset: 0xCB09, size: 0x8, addend: 0x0, symName: __ZNKSt3__19allocatorIP4NodeE8max_sizeB8ue170006Ev, symObjAddr: 0x35A0, symBinAddr: 0x10000577C, symSize: 0x14 }
  - { offsetInCU: 0xCB39, offset: 0xCB39, size: 0x8, addend: 0x0, symName: __ZNKSt3__123__move_backward_trivialclB8ue170006IPP4NodeS4_Li0EEENS_4pairIPT_PT0_EES7_S7_S9_, symObjAddr: 0x3754, symBinAddr: 0x100005930, symSize: 0x48 }
  - { offsetInCU: 0xCBA1, offset: 0xCBA1, size: 0x8, addend: 0x0, symName: __ZNKSt3__15dequeIP4NodeNS_9allocatorIS2_EEE23__annotate_poison_blockB8ue170006EPKvS7_, symObjAddr: 0x3864, symBinAddr: 0x100005A40, symSize: 0x44 }
  - { offsetInCU: 0xCBEF, offset: 0xCBEF, size: 0x8, addend: 0x0, symName: __ZNKSt3__16__lessIvvEclB8ue170006ImmEEbRKT_RKT0_, symObjAddr: 0x38FC, symBinAddr: 0x100005AD8, symSize: 0x34 }
  - { offsetInCU: 0xCC43, offset: 0xCC43, size: 0x8, addend: 0x0, symName: __ZNSt3__114__split_bufferIPP4NodeRNS_9allocatorIS3_EEEC2EmmS6_, symObjAddr: 0x3930, symBinAddr: 0x100005B0C, symSize: 0xD4 }
  - { offsetInCU: 0xCCB7, offset: 0xCCB7, size: 0x8, addend: 0x0, symName: __ZNSt3__117__compressed_pairIPPP4NodeRNS_9allocatorIS3_EEEC1B8ue170006IDnS7_EEOT_OT0_, symObjAddr: 0x3A04, symBinAddr: 0x100005BE0, symSize: 0x3C }
  - { offsetInCU: 0xCD0F, offset: 0xCD0F, size: 0x8, addend: 0x0, symName: __ZNSt3__117__compressed_pairIPPP4NodeRNS_9allocatorIS3_EEEC2B8ue170006IDnS7_EEOT_OT0_, symObjAddr: 0x3A80, symBinAddr: 0x100005C5C, symSize: 0x48 }
  - { offsetInCU: 0xCD67, offset: 0xCD67, size: 0x8, addend: 0x0, symName: __ZNSt3__122__compressed_pair_elemIRNS_9allocatorIPP4NodeEELi1ELb0EEC2B8ue170006IS6_vEEOT_, symObjAddr: 0x3AC8, symBinAddr: 0x100005CA4, symSize: 0x20 }
  - { offsetInCU: 0xCDA9, offset: 0xCDA9, size: 0x8, addend: 0x0, symName: __ZNSt3__19allocatorIPP4NodeE8allocateB8ue170006Em, symObjAddr: 0x3AE8, symBinAddr: 0x100005CC4, symSize: 0x84 }
  - { offsetInCU: 0xCDE7, offset: 0xCDE7, size: 0x8, addend: 0x0, symName: __ZNSt3__116allocator_traitsINS_9allocatorIPP4NodeEEE8max_sizeB8ue170006IS5_vEEmRKS5_, symObjAddr: 0x3B6C, symBinAddr: 0x100005D48, symSize: 0x24 }
  - { offsetInCU: 0xCE15, offset: 0xCE15, size: 0x8, addend: 0x0, symName: __ZNKSt3__19allocatorIPP4NodeE8max_sizeB8ue170006Ev, symObjAddr: 0x3B90, symBinAddr: 0x100005D6C, symSize: 0x14 }
  - { offsetInCU: 0xCE3B, offset: 0xCE3B, size: 0x8, addend: 0x0, symName: __ZNSt3__122__allocator_destructorINS_9allocatorIP4NodeEEEC2B8ue170006ERS4_m, symObjAddr: 0x3BA4, symBinAddr: 0x100005D80, symSize: 0x2C }
  - { offsetInCU: 0xCE81, offset: 0xCE81, size: 0x8, addend: 0x0, symName: __ZNSt3__110unique_ptrIPP4NodeNS_22__allocator_destructorINS_9allocatorIS2_EEEEEC2B8ue170006ILb1EvEES3_NS_16__dependent_typeINS_27__unique_ptr_deleter_sfinaeIS7_EEXT_EE20__good_rval_ref_typeE, symObjAddr: 0x3BD0, symBinAddr: 0x100005DAC, symSize: 0x5C }
  - { offsetInCU: 0xCED2, offset: 0xCED2, size: 0x8, addend: 0x0, symName: __ZNSt3__117__compressed_pairIPP4NodeNS_22__allocator_destructorINS_9allocatorIS2_EEEEEC1B8ue170006IRS3_S7_EEOT_OT0_, symObjAddr: 0x3C2C, symBinAddr: 0x100005E08, symSize: 0x3C }
  - { offsetInCU: 0xCF2A, offset: 0xCF2A, size: 0x8, addend: 0x0, symName: __ZNSt3__117__compressed_pairIPP4NodeNS_22__allocator_destructorINS_9allocatorIS2_EEEEEC2B8ue170006IRS3_S7_EEOT_OT0_, symObjAddr: 0x3C68, symBinAddr: 0x100005E44, symSize: 0x48 }
  - { offsetInCU: 0xCF82, offset: 0xCF82, size: 0x8, addend: 0x0, symName: __ZNSt3__122__compressed_pair_elemIPP4NodeLi0ELb0EEC2B8ue170006IRS3_vEEOT_, symObjAddr: 0x3CB0, symBinAddr: 0x100005E8C, symSize: 0x24 }
  - { offsetInCU: 0xCFC4, offset: 0xCFC4, size: 0x8, addend: 0x0, symName: __ZNSt3__122__compressed_pair_elemINS_22__allocator_destructorINS_9allocatorIP4NodeEEEELi1ELb0EEC2B8ue170006IS6_vEEOT_, symObjAddr: 0x3CD4, symBinAddr: 0x100005EB0, symSize: 0x24 }
  - { offsetInCU: 0xD006, offset: 0xD006, size: 0x8, addend: 0x0, symName: __ZNKSt3__117__compressed_pairIPP4NodeNS_22__allocator_destructorINS_9allocatorIS2_EEEEE5firstB8ue170006Ev, symObjAddr: 0x3CF8, symBinAddr: 0x100005ED4, symSize: 0x24 }
  - { offsetInCU: 0xD02C, offset: 0xD02C, size: 0x8, addend: 0x0, symName: __ZNKSt3__122__compressed_pair_elemIPP4NodeLi0ELb0EE5__getB8ue170006Ev, symObjAddr: 0x3D1C, symBinAddr: 0x100005EF8, symSize: 0x14 }
  - { offsetInCU: 0xD052, offset: 0xD052, size: 0x8, addend: 0x0, symName: __ZNSt3__117__compressed_pairIPP4NodeNS_22__allocator_destructorINS_9allocatorIS2_EEEEE5firstB8ue170006Ev, symObjAddr: 0x3D30, symBinAddr: 0x100005F0C, symSize: 0x24 }
  - { offsetInCU: 0xD078, offset: 0xD078, size: 0x8, addend: 0x0, symName: __ZNSt3__122__compressed_pair_elemIPP4NodeLi0ELb0EE5__getB8ue170006Ev, symObjAddr: 0x3D54, symBinAddr: 0x100005F30, symSize: 0x14 }
  - { offsetInCU: 0xD09E, offset: 0xD09E, size: 0x8, addend: 0x0, symName: __ZNSt3__117__compressed_pairIPPP4NodeNS_9allocatorIS3_EEE5firstB8ue170006Ev, symObjAddr: 0x3D68, symBinAddr: 0x100005F44, symSize: 0x24 }
  - { offsetInCU: 0xD0C4, offset: 0xD0C4, size: 0x8, addend: 0x0, symName: __ZNSt3__122__compressed_pair_elemIPPP4NodeLi0ELb0EE5__getB8ue170006Ev, symObjAddr: 0x3D8C, symBinAddr: 0x100005F68, symSize: 0x14 }
  - { offsetInCU: 0xD0EA, offset: 0xD0EA, size: 0x8, addend: 0x0, symName: __ZNSt3__117__compressed_pairIPPP4NodeRNS_9allocatorIS3_EEE5firstB8ue170006Ev, symObjAddr: 0x3DA0, symBinAddr: 0x100005F7C, symSize: 0x24 }
  - { offsetInCU: 0xD110, offset: 0xD110, size: 0x8, addend: 0x0, symName: __ZNSt3__110unique_ptrIPP4NodeNS_22__allocator_destructorINS_9allocatorIS2_EEEEED2B8ue170006Ev, symObjAddr: 0x3DC4, symBinAddr: 0x100005FA0, symSize: 0x30 }
  - { offsetInCU: 0xD13A, offset: 0xD13A, size: 0x8, addend: 0x0, symName: __ZNSt3__110unique_ptrIPP4NodeNS_22__allocator_destructorINS_9allocatorIS2_EEEEE5resetB8ue170006ES3_, symObjAddr: 0x3DF4, symBinAddr: 0x100005FD0, symSize: 0x78 }
  - { offsetInCU: 0xD17E, offset: 0xD17E, size: 0x8, addend: 0x0, symName: __ZNSt3__117__compressed_pairIPP4NodeNS_22__allocator_destructorINS_9allocatorIS2_EEEEE6secondB8ue170006Ev, symObjAddr: 0x3E6C, symBinAddr: 0x100006048, symSize: 0x28 }
  - { offsetInCU: 0xD1A4, offset: 0xD1A4, size: 0x8, addend: 0x0, symName: __ZNSt3__122__allocator_destructorINS_9allocatorIP4NodeEEEclB8ue170006EPS3_, symObjAddr: 0x3E94, symBinAddr: 0x100006070, symSize: 0x34 }
  - { offsetInCU: 0xD1D8, offset: 0xD1D8, size: 0x8, addend: 0x0, symName: __ZNSt3__122__compressed_pair_elemINS_22__allocator_destructorINS_9allocatorIP4NodeEEEELi1ELb0EE5__getB8ue170006Ev, symObjAddr: 0x3EC8, symBinAddr: 0x1000060A4, symSize: 0x14 }
  - { offsetInCU: 0xD1FE, offset: 0xD1FE, size: 0x8, addend: 0x0, symName: __ZNSt3__116allocator_traitsINS_9allocatorIP4NodeEEE10deallocateB8ue170006ERS4_PS3_m, symObjAddr: 0x3EDC, symBinAddr: 0x1000060B8, symSize: 0x34 }
  - { offsetInCU: 0xD240, offset: 0xD240, size: 0x8, addend: 0x0, symName: __ZNSt3__19allocatorIP4NodeE10deallocateB8ue170006EPS2_m, symObjAddr: 0x3F10, symBinAddr: 0x1000060EC, symSize: 0x70 }
  - { offsetInCU: 0xD282, offset: 0xD282, size: 0x8, addend: 0x0, symName: __ZNSt3__114__split_bufferIPP4NodeRNS_9allocatorIS3_EEED2Ev, symObjAddr: 0x3F80, symBinAddr: 0x10000615C, symSize: 0x80 }
  - { offsetInCU: 0xD2AE, offset: 0xD2AE, size: 0x8, addend: 0x0, symName: __ZNSt3__114__split_bufferIPP4NodeRNS_9allocatorIS3_EEE5clearB8ue170006Ev, symObjAddr: 0x4000, symBinAddr: 0x1000061DC, symSize: 0x28 }
  - { offsetInCU: 0xD2D4, offset: 0xD2D4, size: 0x8, addend: 0x0, symName: __ZNKSt3__114__split_bufferIPP4NodeRNS_9allocatorIS3_EEE8capacityB8ue170006Ev, symObjAddr: 0x4028, symBinAddr: 0x100006204, symSize: 0x40 }
  - { offsetInCU: 0xD2FA, offset: 0xD2FA, size: 0x8, addend: 0x0, symName: __ZNSt3__114__split_bufferIPP4NodeRNS_9allocatorIS3_EEE17__destruct_at_endB8ue170006EPS3_, symObjAddr: 0x4068, symBinAddr: 0x100006244, symSize: 0x2C }
  - { offsetInCU: 0xD32E, offset: 0xD32E, size: 0x8, addend: 0x0, symName: __ZNSt3__114__split_bufferIPP4NodeRNS_9allocatorIS3_EEE17__destruct_at_endB8ue170006EPS3_NS_17integral_constantIbLb0EEE, symObjAddr: 0x4094, symBinAddr: 0x100006270, symSize: 0x94 }
  - { offsetInCU: 0xD36E, offset: 0xD36E, size: 0x8, addend: 0x0, symName: __ZNKSt3__114__split_bufferIPP4NodeRNS_9allocatorIS3_EEE9__end_capB8ue170006Ev, symObjAddr: 0x4128, symBinAddr: 0x100006304, symSize: 0x28 }
  - { offsetInCU: 0xD394, offset: 0xD394, size: 0x8, addend: 0x0, symName: __ZNKSt3__117__compressed_pairIPPP4NodeRNS_9allocatorIS3_EEE5firstB8ue170006Ev, symObjAddr: 0x4150, symBinAddr: 0x10000632C, symSize: 0x24 }
  - { offsetInCU: 0xD3BA, offset: 0xD3BA, size: 0x8, addend: 0x0, symName: __ZNSt3__19allocatorIP4NodeE9constructB8ue170006IS2_JRKS2_EEEvPT_DpOT0_, symObjAddr: 0x4174, symBinAddr: 0x100006350, symSize: 0x28 }
  - { offsetInCU: 0xD410, offset: 0xD410, size: 0x8, addend: 0x0, symName: __ZNKSt3__114__split_bufferIPP4NodeNS_9allocatorIS3_EEE5emptyB8ue170006Ev, symObjAddr: 0x419C, symBinAddr: 0x100006378, symSize: 0x28 }
  - { offsetInCU: 0xD436, offset: 0xD436, size: 0x8, addend: 0x0, symName: __ZNSt3__116__deque_iteratorIP4NodePS2_RS2_PS3_lLl512EEC1B8ue170006ES5_S3_, symObjAddr: 0x41C4, symBinAddr: 0x1000063A0, symSize: 0x3C }
  - { offsetInCU: 0xD47E, offset: 0xD47E, size: 0x8, addend: 0x0, symName: __ZNSt3__116__deque_iteratorIP4NodePS2_RS2_PS3_lLl512EEC2B8ue170006ES5_S3_, symObjAddr: 0x4200, symBinAddr: 0x1000063DC, symSize: 0x2C }
  - { offsetInCU: 0xD4C6, offset: 0xD4C6, size: 0x8, addend: 0x0, symName: __ZNSt3__117__compressed_pairImNS_9allocatorIP4NodeEEE5firstB8ue170006Ev, symObjAddr: 0x422C, symBinAddr: 0x100006408, symSize: 0x24 }
  - { offsetInCU: 0xD4EC, offset: 0xD4EC, size: 0x8, addend: 0x0, symName: __ZNSt3__122__compressed_pair_elemImLi0ELb0EE5__getB8ue170006Ev, symObjAddr: 0x4250, symBinAddr: 0x10000642C, symSize: 0x14 }
  - { offsetInCU: 0xD512, offset: 0xD512, size: 0x8, addend: 0x0, symName: __ZNSt3__15dequeIP4NodeNS_9allocatorIS2_EEE4backEv, symObjAddr: 0x4264, symBinAddr: 0x100006440, symSize: 0x68 }
  - { offsetInCU: 0xD549, offset: 0xD549, size: 0x8, addend: 0x0, symName: __ZNSt3__15dequeIP4NodeNS_9allocatorIS2_EEE8pop_backEv, symObjAddr: 0x42CC, symBinAddr: 0x1000064A8, symSize: 0xE0 }
  - { offsetInCU: 0xD5AD, offset: 0xD5AD, size: 0x8, addend: 0x0, symName: __ZNSt3__116allocator_traitsINS_9allocatorIP4NodeEEE7destroyB8ue170006IS3_vEEvRS4_PT_, symObjAddr: 0x43AC, symBinAddr: 0x100006588, symSize: 0x2C }
  - { offsetInCU: 0xD5EA, offset: 0xD5EA, size: 0x8, addend: 0x0, symName: __ZNKSt3__15dequeIP4NodeNS_9allocatorIS2_EEE22__annotate_shrink_backB8ue170006Emm, symObjAddr: 0x43D8, symBinAddr: 0x1000065B4, symSize: 0x60 }
  - { offsetInCU: 0xD62E, offset: 0xD62E, size: 0x8, addend: 0x0, symName: __ZNSt3__15dequeIP4NodeNS_9allocatorIS2_EEE25__maybe_remove_back_spareB8ue170006Eb, symObjAddr: 0x4438, symBinAddr: 0x100006614, symSize: 0xE8 }
  - { offsetInCU: 0xD663, offset: 0xD663, size: 0x8, addend: 0x0, symName: __ZNSt3__19allocatorIP4NodeE7destroyB8ue170006EPS2_, symObjAddr: 0x4520, symBinAddr: 0x1000066FC, symSize: 0x14 }
  - { offsetInCU: 0xD697, offset: 0xD697, size: 0x8, addend: 0x0, symName: __ZNKSt3__15dequeIP4NodeNS_9allocatorIS2_EEE19__back_spare_blocksB8ue170006Ev, symObjAddr: 0x4534, symBinAddr: 0x100006710, symSize: 0x2C }
  - { offsetInCU: 0xD6BD, offset: 0xD6BD, size: 0x8, addend: 0x0, symName: __ZNSt3__114__split_bufferIPP4NodeNS_9allocatorIS3_EEE4backB8ue170006Ev, symObjAddr: 0x4560, symBinAddr: 0x10000673C, symSize: 0x1C }
  - { offsetInCU: 0xD6E3, offset: 0xD6E3, size: 0x8, addend: 0x0, symName: __ZNSt3__114__split_bufferIPP4NodeNS_9allocatorIS3_EEE8pop_backB8ue170006Ev, symObjAddr: 0x457C, symBinAddr: 0x100006758, symSize: 0x2C }
  - { offsetInCU: 0xD709, offset: 0xD709, size: 0x8, addend: 0x0, symName: __ZNSt3__111char_traitsIcE6lengthB8ue170006EPKc, symObjAddr: 0x479C, symBinAddr: 0x100006978, symSize: 0x48 }
  - { offsetInCU: 0xD74A, offset: 0xD74A, size: 0x8, addend: 0x0, symName: __ZNKSt3__113basic_ostreamIcNS_11char_traitsIcEEE6sentrycvbB8ue170006Ev, symObjAddr: 0x47E4, symBinAddr: 0x1000069C0, symSize: 0x1C }
  - { offsetInCU: 0xD770, offset: 0xD770, size: 0x8, addend: 0x0, symName: __ZNSt3__119ostreambuf_iteratorIcNS_11char_traitsIcEEEC1B8ue170006ERNS_13basic_ostreamIcS2_EE, symObjAddr: 0x4A48, symBinAddr: 0x100006C24, symSize: 0x34 }
  - { offsetInCU: 0xD7A8, offset: 0xD7A8, size: 0x8, addend: 0x0, symName: __ZNKSt3__18ios_base5flagsB8ue170006Ev, symObjAddr: 0x4A7C, symBinAddr: 0x100006C58, symSize: 0x18 }
  - { offsetInCU: 0xD7D0, offset: 0xD7D0, size: 0x8, addend: 0x0, symName: __ZNKSt3__19basic_iosIcNS_11char_traitsIcEEE4fillB8ue170006Ev, symObjAddr: 0x4A94, symBinAddr: 0x100006C70, symSize: 0x64 }
  - { offsetInCU: 0xD7F8, offset: 0xD7F8, size: 0x8, addend: 0x0, symName: __ZNKSt3__119ostreambuf_iteratorIcNS_11char_traitsIcEEE6failedB8ue170006Ev, symObjAddr: 0x4AF8, symBinAddr: 0x100006CD4, symSize: 0x24 }
  - { offsetInCU: 0xD81E, offset: 0xD81E, size: 0x8, addend: 0x0, symName: __ZNSt3__19basic_iosIcNS_11char_traitsIcEEE8setstateB8ue170006Ej, symObjAddr: 0x4B1C, symBinAddr: 0x100006CF8, symSize: 0x2C }
  - { offsetInCU: 0xD853, offset: 0xD853, size: 0x8, addend: 0x0, symName: __ZNKSt3__18ios_base5widthB8ue170006Ev, symObjAddr: 0x4B48, symBinAddr: 0x100006D24, symSize: 0x18 }
  - { offsetInCU: 0xD87B, offset: 0xD87B, size: 0x8, addend: 0x0, symName: __ZNSt3__115basic_streambufIcNS_11char_traitsIcEEE5sputnB8ue170006EPKcl, symObjAddr: 0x4B60, symBinAddr: 0x100006D3C, symSize: 0x3C }
  - { offsetInCU: 0xD8BD, offset: 0xD8BD, size: 0x8, addend: 0x0, symName: __ZNSt3__112basic_stringIcNS_11char_traitsIcEENS_9allocatorIcEEEC1B8ue170006Emc, symObjAddr: 0x4B9C, symBinAddr: 0x100006D78, symSize: 0x3C }
  - { offsetInCU: 0xD905, offset: 0xD905, size: 0x8, addend: 0x0, symName: __ZNKSt3__112basic_stringIcNS_11char_traitsIcEENS_9allocatorIcEEE4dataB8ue170006Ev, symObjAddr: 0x4BD8, symBinAddr: 0x100006DB4, symSize: 0x28 }
  - { offsetInCU: 0xD92B, offset: 0xD92B, size: 0x8, addend: 0x0, symName: __ZNSt3__18ios_base5widthB8ue170006El, symObjAddr: 0x4C00, symBinAddr: 0x100006DDC, symSize: 0x2C }
  - { offsetInCU: 0xD971, offset: 0xD971, size: 0x8, addend: 0x0, symName: __ZNSt3__112basic_stringIcNS_11char_traitsIcEENS_9allocatorIcEEEC2B8ue170006Emc, symObjAddr: 0x4C2C, symBinAddr: 0x100006E08, symSize: 0x4C }
  - { offsetInCU: 0xD9B9, offset: 0xD9B9, size: 0x8, addend: 0x0, symName: __ZNSt3__117__compressed_pairINS_12basic_stringIcNS_11char_traitsIcEENS_9allocatorIcEEE5__repES5_EC1B8ue170006INS_18__default_init_tagESA_EEOT_OT0_, symObjAddr: 0x4C78, symBinAddr: 0x100006E54, symSize: 0x3C }
  - { offsetInCU: 0xDA11, offset: 0xDA11, size: 0x8, addend: 0x0, symName: __ZNSt3__117__compressed_pairINS_12basic_stringIcNS_11char_traitsIcEENS_9allocatorIcEEE5__repES5_EC2B8ue170006INS_18__default_init_tagESA_EEOT_OT0_, symObjAddr: 0x4CB4, symBinAddr: 0x100006E90, symSize: 0x3C }
  - { offsetInCU: 0xDA69, offset: 0xDA69, size: 0x8, addend: 0x0, symName: __ZNSt3__122__compressed_pair_elemINS_12basic_stringIcNS_11char_traitsIcEENS_9allocatorIcEEE5__repELi0ELb0EEC2B8ue170006ENS_18__default_init_tagE, symObjAddr: 0x4CF0, symBinAddr: 0x100006ECC, symSize: 0x14 }
  - { offsetInCU: 0xDA9D, offset: 0xDA9D, size: 0x8, addend: 0x0, symName: __ZNSt3__122__compressed_pair_elemINS_9allocatorIcEELi1ELb1EEC2B8ue170006ENS_18__default_init_tagE, symObjAddr: 0x4D04, symBinAddr: 0x100006EE0, symSize: 0x2C }
  - { offsetInCU: 0xDAD1, offset: 0xDAD1, size: 0x8, addend: 0x0, symName: __ZNSt3__19allocatorIcEC2B8ue170006Ev, symObjAddr: 0x4D30, symBinAddr: 0x100006F0C, symSize: 0x2C }
  - { offsetInCU: 0xDAFB, offset: 0xDAFB, size: 0x8, addend: 0x0, symName: __ZNSt3__116__non_trivial_ifILb1ENS_9allocatorIcEEEC2B8ue170006Ev, symObjAddr: 0x4D5C, symBinAddr: 0x100006F38, symSize: 0x14 }
  - { offsetInCU: 0xDB25, offset: 0xDB25, size: 0x8, addend: 0x0, symName: __ZNKSt3__112basic_stringIcNS_11char_traitsIcEENS_9allocatorIcEEE13__get_pointerB8ue170006Ev, symObjAddr: 0x4D84, symBinAddr: 0x100006F60, symSize: 0x54 }
  - { offsetInCU: 0xDB4B, offset: 0xDB4B, size: 0x8, addend: 0x0, symName: __ZNKSt3__112basic_stringIcNS_11char_traitsIcEENS_9allocatorIcEEE9__is_longB8ue170006Ev, symObjAddr: 0x4DD8, symBinAddr: 0x100006FB4, symSize: 0x74 }
  - { offsetInCU: 0xDB71, offset: 0xDB71, size: 0x8, addend: 0x0, symName: __ZNKSt3__112basic_stringIcNS_11char_traitsIcEENS_9allocatorIcEEE18__get_long_pointerB8ue170006Ev, symObjAddr: 0x4E4C, symBinAddr: 0x100007028, symSize: 0x28 }
  - { offsetInCU: 0xDB97, offset: 0xDB97, size: 0x8, addend: 0x0, symName: __ZNKSt3__112basic_stringIcNS_11char_traitsIcEENS_9allocatorIcEEE19__get_short_pointerB8ue170006Ev, symObjAddr: 0x4E74, symBinAddr: 0x100007050, symSize: 0x28 }
  - { offsetInCU: 0xDBBD, offset: 0xDBBD, size: 0x8, addend: 0x0, symName: __ZNKSt3__117__compressed_pairINS_12basic_stringIcNS_11char_traitsIcEENS_9allocatorIcEEE5__repES5_E5firstB8ue170006Ev, symObjAddr: 0x4E9C, symBinAddr: 0x100007078, symSize: 0x24 }
  - { offsetInCU: 0xDBE3, offset: 0xDBE3, size: 0x8, addend: 0x0, symName: __ZNKSt3__122__compressed_pair_elemINS_12basic_stringIcNS_11char_traitsIcEENS_9allocatorIcEEE5__repELi0ELb0EE5__getB8ue170006Ev, symObjAddr: 0x4EC0, symBinAddr: 0x10000709C, symSize: 0x14 }
  - { offsetInCU: 0xDC09, offset: 0xDC09, size: 0x8, addend: 0x0, symName: __ZNSt3__114pointer_traitsIPKcE10pointer_toB8ue170006ERS1_, symObjAddr: 0x4ED4, symBinAddr: 0x1000070B0, symSize: 0x14 }
  - { offsetInCU: 0xDC2C, offset: 0xDC2C, size: 0x8, addend: 0x0, symName: __ZNSt3__119ostreambuf_iteratorIcNS_11char_traitsIcEEEC2B8ue170006ERNS_13basic_ostreamIcS2_EE, symObjAddr: 0x4EE8, symBinAddr: 0x1000070C4, symSize: 0x68 }
  - { offsetInCU: 0xDC64, offset: 0xDC64, size: 0x8, addend: 0x0, symName: __ZNKSt3__19basic_iosIcNS_11char_traitsIcEEE5rdbufB8ue170006Ev, symObjAddr: 0x4F50, symBinAddr: 0x10000712C, symSize: 0x24 }
  - { offsetInCU: 0xDC8C, offset: 0xDC8C, size: 0x8, addend: 0x0, symName: __ZNKSt3__18ios_base5rdbufB8ue170006Ev, symObjAddr: 0x4F74, symBinAddr: 0x100007150, symSize: 0x18 }
  - { offsetInCU: 0xDCB2, offset: 0xDCB2, size: 0x8, addend: 0x0, symName: __ZNSt3__111char_traitsIcE11eq_int_typeB8ue170006Eii, symObjAddr: 0x4F8C, symBinAddr: 0x100007168, symSize: 0x28 }
  - { offsetInCU: 0xDCE5, offset: 0xDCE5, size: 0x8, addend: 0x0, symName: __ZNSt3__111char_traitsIcE3eofB8ue170006Ev, symObjAddr: 0x4FB4, symBinAddr: 0x100007190, symSize: 0x8 }
  - { offsetInCU: 0xDCF9, offset: 0xDCF9, size: 0x8, addend: 0x0, symName: __ZNKSt3__19basic_iosIcNS_11char_traitsIcEEE5widenB8ue170006Ec, symObjAddr: 0x4FBC, symBinAddr: 0x100007198, symSize: 0x8C }
  - { offsetInCU: 0xDD62, offset: 0xDD62, size: 0x8, addend: 0x0, symName: __ZNKSt3__15ctypeIcE5widenB8ue170006Ec, symObjAddr: 0x5074, symBinAddr: 0x100007250, symSize: 0x38 }
  - { offsetInCU: 0xDD97, offset: 0xDD97, size: 0x8, addend: 0x0, symName: __ZNSt3__18ios_base8setstateB8ue170006Ej, symObjAddr: 0x50AC, symBinAddr: 0x100007288, symSize: 0x34 }
  - { offsetInCU: 0xDDCE, offset: 0xDDCE, size: 0x8, addend: 0x0, symName: __ZNSt3__15stackIP4NodeNS_5dequeIS2_NS_9allocatorIS2_EEEEED2Ev, symObjAddr: 0x5104, symBinAddr: 0x1000072E0, symSize: 0x2C }
  - { offsetInCU: 0xDDFA, offset: 0xDDFA, size: 0x8, addend: 0x0, symName: __ZNSt3__15dequeIP4NodeNS_9allocatorIS2_EEED1B8ue170006Ev, symObjAddr: 0x5130, symBinAddr: 0x10000730C, symSize: 0x2C }
  - { offsetInCU: 0xDE24, offset: 0xDE24, size: 0x8, addend: 0x0, symName: __ZNSt3__15dequeIP4NodeNS_9allocatorIS2_EEED2B8ue170006Ev, symObjAddr: 0x515C, symBinAddr: 0x100007338, symSize: 0xA4 }
  - { offsetInCU: 0xDE7B, offset: 0xDE7B, size: 0x8, addend: 0x0, symName: __ZNSt3__15dequeIP4NodeNS_9allocatorIS2_EEE5clearEv, symObjAddr: 0x5200, symBinAddr: 0x1000073DC, symSize: 0x184 }
  - { offsetInCU: 0xDEDF, offset: 0xDEDF, size: 0x8, addend: 0x0, symName: __ZNKSt3__15dequeIP4NodeNS_9allocatorIS2_EEE17__annotate_deleteB8ue170006Ev, symObjAddr: 0x5384, symBinAddr: 0x100007560, symSize: 0xE8 }
  - { offsetInCU: 0xDF23, offset: 0xDF23, size: 0x8, addend: 0x0, symName: __ZNSt3__15dequeIP4NodeNS_9allocatorIS2_EEE5beginB8ue170006Ev, symObjAddr: 0x546C, symBinAddr: 0x100007648, symSize: 0xA8 }
  - { offsetInCU: 0xDF58, offset: 0xDF58, size: 0x8, addend: 0x0, symName: __ZNSt3__116__deque_iteratorIP4NodePS2_RS2_PS3_lLl512EEppB8ue170006Ev, symObjAddr: 0x5548, symBinAddr: 0x100007724, symSize: 0x70 }
...
