---
triple:          'arm64-apple-darwin'
binary-path:     '/Users/CONG HAU/DSA/TH/Buoi 2/output/14: Wood Cutting'
relocations:
  - { offsetInCU: 0x3F81, offset: 0x3F81, size: 0x8, addend: 0x0, symName: __ZNSt3__111__sift_downB8ue170006INS_17_ClassicAlgPolicyERNS_7greaterIxEENS_11__wrap_iterIPxEEEEvT1_OT0_NS_15iterator_traitsIS8_E15difference_typeES8_, symObjAddr: 0x3154, symBinAddr: 0x100007010, symSize: 0x2DC }
  - { offsetInCU: 0x4060, offset: 0x4060, size: 0x8, addend: 0x0, symName: __ZNSt3__117__floyd_sift_downB8ue170006INS_17_ClassicAlgPolicyERNS_7greaterIxEENS_11__wrap_iterIPxEEEET1_S8_OT0_NS_15iterator_traitsIS8_E15difference_typeE, symObjAddr: 0x370C, symBinAddr: 0x1000075C8, symSize: 0x14C }
  - { offsetInCU: 0x5014, offset: 0x5014, size: 0x8, addend: 0x0, symName: __ZNSt3__112__to_addressB8ue170006IxEEPT_S2_, symObjAddr: 0x954, symBinAddr: 0x100004810, symSize: 0x14 }
  - { offsetInCU: 0x5049, offset: 0x5049, size: 0x8, addend: 0x0, symName: __ZNSt3__130__libcpp_is_constant_evaluatedB8ue170006Ev, symObjAddr: 0xA5C, symBinAddr: 0x100004918, symSize: 0xC }
  - { offsetInCU: 0x5066, offset: 0x5066, size: 0x8, addend: 0x0, symName: __ZNSt3__119__libcpp_deallocateB8ue170006EPvmm, symObjAddr: 0xA68, symBinAddr: 0x100004924, symSize: 0x30 }
  - { offsetInCU: 0x50AE, offset: 0x50AE, size: 0x8, addend: 0x0, symName: __ZNSt3__127__do_deallocate_handle_sizeB8ue170006IJEEEvPvmDpT_, symObjAddr: 0xA98, symBinAddr: 0x100004954, symSize: 0x28 }
  - { offsetInCU: 0x50EC, offset: 0x50EC, size: 0x8, addend: 0x0, symName: __ZNSt3__124__libcpp_operator_deleteB8ue170006IJPvEEEvDpT_, symObjAddr: 0xAC0, symBinAddr: 0x10000497C, symSize: 0x24 }
  - { offsetInCU: 0x5121, offset: 0x5121, size: 0x8, addend: 0x0, symName: __ZNSt3__13maxB8ue170006ImEERKT_S3_S3_, symObjAddr: 0x1140, symBinAddr: 0x100004FFC, symSize: 0x2C }
  - { offsetInCU: 0x5164, offset: 0x5164, size: 0x8, addend: 0x0, symName: __ZNSt3__13minB8ue170006ImEERKT_S3_S3_, symObjAddr: 0x116C, symBinAddr: 0x100005028, symSize: 0x2C }
  - { offsetInCU: 0x53A8, offset: 0x53A8, size: 0x8, addend: 0x0, symName: __ZNSt3__13minB8ue170006ImNS_6__lessIvvEEEERKT_S5_S5_T0_, symObjAddr: 0x11F8, symBinAddr: 0x1000050B4, symSize: 0x54 }
  - { offsetInCU: 0x5447, offset: 0x5447, size: 0x8, addend: 0x0, symName: __ZNSt3__120__throw_length_errorB8ue170006EPKc, symObjAddr: 0x12D4, symBinAddr: 0x100005190, symSize: 0x64 }
  - { offsetInCU: 0x5471, offset: 0x5471, size: 0x8, addend: 0x0, symName: __ZNSt3__13maxB8ue170006ImNS_6__lessIvvEEEERKT_S5_S5_T0_, symObjAddr: 0x13B8, symBinAddr: 0x100005274, symSize: 0x54 }
  - { offsetInCU: 0x54CB, offset: 0x54CB, size: 0x8, addend: 0x0, symName: __ZNSt3__119__allocate_at_leastB8ue170006INS_9allocatorIxEEEENS_19__allocation_resultINS_16allocator_traitsIT_E7pointerEEERS5_m, symObjAddr: 0x151C, symBinAddr: 0x1000053D8, symSize: 0x40 }
  - { offsetInCU: 0x550E, offset: 0x550E, size: 0x8, addend: 0x0, symName: __ZNSt3__117__libcpp_allocateB8ue170006Emm, symObjAddr: 0x16CC, symBinAddr: 0x100005588, symSize: 0x28 }
  - { offsetInCU: 0x554B, offset: 0x554B, size: 0x8, addend: 0x0, symName: __ZNSt3__121__libcpp_operator_newB8ue170006IJmEEEPvDpT_, symObjAddr: 0x16F4, symBinAddr: 0x1000055B0, symSize: 0x24 }
  - { offsetInCU: 0x5584, offset: 0x5584, size: 0x8, addend: 0x0, symName: __ZNSt3__142__uninitialized_allocator_move_if_noexceptB8ue170006INS_9allocatorIxEENS_16reverse_iteratorIPxEES5_xvEET1_RT_T0_S9_S6_, symObjAddr: 0x177C, symBinAddr: 0x100005638, symSize: 0xE8 }
  - { offsetInCU: 0x5601, offset: 0x5601, size: 0x8, addend: 0x0, symName: __ZNSt3__14swapB8ue170006IPxEEvRT_S3_, symObjAddr: 0x18B0, symBinAddr: 0x10000576C, symSize: 0x3C }
  - { offsetInCU: 0x5652, offset: 0x5652, size: 0x8, addend: 0x0, symName: __ZNSt3__1neB8ue170006IPxS1_EEbRKNS_16reverse_iteratorIT_EERKNS2_IT0_EE, symObjAddr: 0x1998, symBinAddr: 0x100005854, symSize: 0x48 }
  - { offsetInCU: 0x56C3, offset: 0x56C3, size: 0x8, addend: 0x0, symName: __ZNSt3__114__construct_atB8ue170006IxJxEPxEEPT_S3_DpOT0_, symObjAddr: 0x19E0, symBinAddr: 0x10000589C, symSize: 0x2C }
  - { offsetInCU: 0x5733, offset: 0x5733, size: 0x8, addend: 0x0, symName: __ZNSt3__112__to_addressB8ue170006INS_16reverse_iteratorIPxEEvEEu7__decayIDTclsr19__to_address_helperIT_EE6__callclsr3stdE7declvalIRKS4_EEEEES6_, symObjAddr: 0x1A0C, symBinAddr: 0x1000058C8, symSize: 0x24 }
  - { offsetInCU: 0x5769, offset: 0x5769, size: 0x8, addend: 0x0, symName: __ZNSt3__14moveB8ue170006INS_16reverse_iteratorIPxEES3_EET0_T_S5_S4_, symObjAddr: 0x1A78, symBinAddr: 0x100005934, symSize: 0x78 }
  - { offsetInCU: 0x57EC, offset: 0x57EC, size: 0x8, addend: 0x0, symName: __ZNSt3__16__moveB8ue170006INS_17_ClassicAlgPolicyENS_16reverse_iteratorIPxEES4_S4_EENS_4pairIT0_T2_EES6_T1_S7_, symObjAddr: 0x1B60, symBinAddr: 0x100005A1C, symSize: 0x64 }
  - { offsetInCU: 0x5858, offset: 0x5858, size: 0x8, addend: 0x0, symName: __ZNSt3__123__dispatch_copy_or_moveB8ue170006INS_17_ClassicAlgPolicyENS_11__move_loopIS1_EENS_14__move_trivialENS_16reverse_iteratorIPxEES7_S7_EENS_4pairIT2_T4_EES9_T3_SA_, symObjAddr: 0x1BC4, symBinAddr: 0x100005A80, symSize: 0x64 }
  - { offsetInCU: 0x58D6, offset: 0x58D6, size: 0x8, addend: 0x0, symName: __ZNSt3__121__unwrap_and_dispatchB8ue170006INS_10__overloadINS_11__move_loopINS_17_ClassicAlgPolicyEEENS_14__move_trivialEEENS_16reverse_iteratorIPxEES9_S9_Li0EEENS_4pairIT0_T2_EESB_T1_SC_, symObjAddr: 0x1C28, symBinAddr: 0x100005AE4, symSize: 0x12C }
  - { offsetInCU: 0x5966, offset: 0x5966, size: 0x8, addend: 0x0, symName: __ZNSt3__114__unwrap_rangeB8ue170006INS_16reverse_iteratorIPxEES3_EENS_4pairIT0_S5_EET_S7_, symObjAddr: 0x1D54, symBinAddr: 0x100005C10, symSize: 0x84 }
  - { offsetInCU: 0x5ABA, offset: 0x5ABA, size: 0x8, addend: 0x0, symName: __ZNSt3__113__unwrap_iterB8ue170006INS_16reverse_iteratorIPxEENS_18__unwrap_iter_implIS3_Lb0EEELi0EEEDTclsrT0_8__unwrapclsr3stdE7declvalIT_EEEES7_, symObjAddr: 0x1E78, symBinAddr: 0x100005D34, symSize: 0x44 }
  - { offsetInCU: 0x5AFE, offset: 0x5AFE, size: 0x8, addend: 0x0, symName: __ZNSt3__19make_pairB8ue170006INS_16reverse_iteratorIPxEES3_EENS_4pairINS_18__unwrap_ref_decayIT_E4typeENS5_IT0_E4typeEEEOS6_OS9_, symObjAddr: 0x1EBC, symBinAddr: 0x100005D78, symSize: 0x38 }
  - { offsetInCU: 0x5B4D, offset: 0x5B4D, size: 0x8, addend: 0x0, symName: __ZNSt3__114__rewrap_rangeB8ue170006INS_16reverse_iteratorIPxEES3_EET_S4_T0_, symObjAddr: 0x1EF4, symBinAddr: 0x100005DB0, symSize: 0x5C }
  - { offsetInCU: 0x5B99, offset: 0x5B99, size: 0x8, addend: 0x0, symName: __ZNSt3__113__rewrap_iterB8ue170006INS_16reverse_iteratorIPxEES3_NS_18__unwrap_iter_implIS3_Lb0EEEEET_S6_T0_, symObjAddr: 0x1F50, symBinAddr: 0x100005E0C, symSize: 0x88 }
  - { offsetInCU: 0x5CD3, offset: 0x5CD3, size: 0x8, addend: 0x0, symName: __ZNSt3__19make_heapB8ue170006INS_11__wrap_iterIPxEENS_7greaterIxEEEEvT_S6_T0_, symObjAddr: 0x2448, symBinAddr: 0x100006304, symSize: 0x40 }
  - { offsetInCU: 0x5D29, offset: 0x5D29, size: 0x8, addend: 0x0, symName: __ZNSt3__18distanceB8ue170006INS_11__wrap_iterIPxEEEENS_15iterator_traitsIT_E15difference_typeES5_S5_, symObjAddr: 0x251C, symBinAddr: 0x1000063D8, symSize: 0x3C }
  - { offsetInCU: 0x5D6C, offset: 0x5D6C, size: 0x8, addend: 0x0, symName: __ZNSt3__110__distanceB8ue170006INS_11__wrap_iterIPxEEEENS_15iterator_traitsIT_E15difference_typeES5_S5_NS_26random_access_iterator_tagE, symObjAddr: 0x2628, symBinAddr: 0x1000064E4, symSize: 0x30 }
  - { offsetInCU: 0x5DB9, offset: 0x5DB9, size: 0x8, addend: 0x0, symName: __ZNSt3__1miB8ue170006IPxS1_EENS_11__wrap_iterIT_E15difference_typeERKS4_RKNS2_IT0_EE, symObjAddr: 0x2658, symBinAddr: 0x100006514, symSize: 0x48 }
  - { offsetInCU: 0x5E05, offset: 0x5E05, size: 0x8, addend: 0x0, symName: __ZNSt3__122__make_exception_guardB8ue170006INS_6vectorIxNS_9allocatorIxEEE16__destroy_vectorEEENS_28__exception_guard_exceptionsIT_EES7_, symObjAddr: 0x26B8, symBinAddr: 0x100006574, symSize: 0x40 }
  - { offsetInCU: 0x5E3A, offset: 0x5E3A, size: 0x8, addend: 0x0, symName: __ZNSt3__130__uninitialized_allocator_copyB8ue170006INS_9allocatorIxEENS_11__wrap_iterIPxEES5_S4_EET2_RT_T0_T1_S6_, symObjAddr: 0x28E8, symBinAddr: 0x1000067A4, symSize: 0x90 }
  - { offsetInCU: 0x5ED7, offset: 0x5ED7, size: 0x8, addend: 0x0, symName: __ZNSt3__114__unwrap_rangeB8ue170006INS_11__wrap_iterIPxEES2_EENS_4pairIT0_S5_EET_S7_, symObjAddr: 0x2978, symBinAddr: 0x100006834, symSize: 0x70 }
  - { offsetInCU: 0x5F23, offset: 0x5F23, size: 0x8, addend: 0x0, symName: __ZNSt3__135__uninitialized_allocator_copy_implB8ue170006INS_9allocatorIxEEPxS3_S3_EET2_RT_T0_T1_S4_, symObjAddr: 0x29E8, symBinAddr: 0x1000068A4, symSize: 0xFC }
  - { offsetInCU: 0x5FC1, offset: 0x5FC1, size: 0x8, addend: 0x0, symName: __ZNSt3__113__unwrap_iterB8ue170006IPxNS_18__unwrap_iter_implIS1_Lb1EEELi0EEEDTclsrT0_8__unwrapclsr3stdE7declvalIT_EEEES5_, symObjAddr: 0x2AE4, symBinAddr: 0x1000069A0, symSize: 0x24 }
  - { offsetInCU: 0x6005, offset: 0x6005, size: 0x8, addend: 0x0, symName: __ZNSt3__113__rewrap_iterB8ue170006IPxS1_NS_18__unwrap_iter_implIS1_Lb1EEEEET_S4_T0_, symObjAddr: 0x2B08, symBinAddr: 0x1000069C4, symSize: 0x50 }
  - { offsetInCU: 0x605A, offset: 0x605A, size: 0x8, addend: 0x0, symName: __ZNSt3__19make_pairB8ue170006IPxS1_EENS_4pairINS_18__unwrap_ref_decayIT_E4typeENS3_IT0_E4typeEEEOS4_OS7_, symObjAddr: 0x2B58, symBinAddr: 0x100006A14, symSize: 0x38 }
  - { offsetInCU: 0x60A9, offset: 0x60A9, size: 0x8, addend: 0x0, symName: __ZNSt3__113__unwrap_iterB8ue170006INS_11__wrap_iterIPxEENS_18__unwrap_iter_implIS3_Lb1EEELi0EEEDTclsrT0_8__unwrapclsr3stdE7declvalIT_EEEES7_, symObjAddr: 0x2B90, symBinAddr: 0x100006A4C, symSize: 0x2C }
  - { offsetInCU: 0x61ED, offset: 0x61ED, size: 0x8, addend: 0x0, symName: __ZNSt3__112__to_addressB8ue170006INS_11__wrap_iterIPxEEvEEu7__decayIDTclsr19__to_address_helperIT_EE6__callclsr3stdE7declvalIRKS4_EEEEES6_, symObjAddr: 0x2C54, symBinAddr: 0x100006B10, symSize: 0x24 }
  - { offsetInCU: 0x62C8, offset: 0x62C8, size: 0x8, addend: 0x0, symName: __ZNSt3__122__make_exception_guardB8ue170006INS_29_AllocatorDestroyRangeReverseINS_9allocatorIxEEPxEEEENS_28__exception_guard_exceptionsIT_EES7_, symObjAddr: 0x2CD4, symBinAddr: 0x100006B90, symSize: 0x4C }
  - { offsetInCU: 0x62FE, offset: 0x62FE, size: 0x8, addend: 0x0, symName: __ZNSt3__119__allocator_destroyB8ue170006INS_9allocatorIxEENS_16reverse_iteratorIPxEES5_EEvRT_T0_T1_, symObjAddr: 0x2F54, symBinAddr: 0x100006E10, symSize: 0x70 }
  - { offsetInCU: 0x63B4, offset: 0x63B4, size: 0x8, addend: 0x0, symName: __ZNSt3__111__make_heapB8ue170006INS_17_ClassicAlgPolicyERNS_7greaterIxEENS_11__wrap_iterIPxEEEEvT1_S8_OT0_, symObjAddr: 0x3080, symBinAddr: 0x100006F3C, symSize: 0xD4 }
  - { offsetInCU: 0x6456, offset: 0x6456, size: 0x8, addend: 0x0, symName: __ZNSt3__18pop_heapB8ue170006INS_11__wrap_iterIPxEENS_7greaterIxEEEEvT_S6_T0_, symObjAddr: 0x3544, symBinAddr: 0x100007400, symSize: 0x58 }
  - { offsetInCU: 0x64BA, offset: 0x64BA, size: 0x8, addend: 0x0, symName: __ZNSt3__110__pop_heapB8ue170006INS_17_ClassicAlgPolicyENS_7greaterIxEENS_11__wrap_iterIPxEEEEvT1_S7_RT0_NS_15iterator_traitsIS7_E15difference_typeE, symObjAddr: 0x35C8, symBinAddr: 0x100007484, symSize: 0x144 }
  - { offsetInCU: 0x656A, offset: 0x656A, size: 0x8, addend: 0x0, symName: __ZNSt3__1eqB8ue170006IPxEEbRKNS_11__wrap_iterIT_EES6_, symObjAddr: 0x3878, symBinAddr: 0x100007734, symSize: 0x48 }
  - { offsetInCU: 0x65AD, offset: 0x65AD, size: 0x8, addend: 0x0, symName: __ZNSt3__19__sift_upB8ue170006INS_17_ClassicAlgPolicyERNS_7greaterIxEENS_11__wrap_iterIPxEEEEvT1_S8_OT0_NS_15iterator_traitsIS8_E15difference_typeE, symObjAddr: 0x38C0, symBinAddr: 0x10000777C, symSize: 0x168 }
  - { offsetInCU: 0x665D, offset: 0x665D, size: 0x8, addend: 0x0, symName: __ZNSt3__19push_heapB8ue170006INS_11__wrap_iterIPxEENS_7greaterIxEEEEvT_S6_T0_, symObjAddr: 0x3B28, symBinAddr: 0x1000079E4, symSize: 0x40 }
  - { offsetInCU: 0x66B3, offset: 0x66B3, size: 0x8, addend: 0x0, symName: __ZNSt3__111__push_heapB8ue170006INS_17_ClassicAlgPolicyENS_11__wrap_iterIPxEENS_7greaterIxEEEEvT0_S7_RT1_, symObjAddr: 0x3B68, symBinAddr: 0x100007A24, symSize: 0x5C }
  - { offsetInCU: 0x691F, offset: 0x691F, size: 0x8, addend: 0x0, symName: __ZSt28__throw_bad_array_new_lengthB8ue170006v, symObjAddr: 0x1698, symBinAddr: 0x100005554, symSize: 0x34 }
  - { offsetInCU: 0x6CDC, offset: 0x6CDC, size: 0x8, addend: 0x0, symName: __ZNSt3__16vectorIxNS_9allocatorIxEEE26__swap_out_circular_bufferERNS_14__split_bufferIxRS2_EE, symObjAddr: 0xF74, symBinAddr: 0x100004E30, symSize: 0x110 }
  - { offsetInCU: 0x8FCA, offset: 0x8FCA, size: 0x8, addend: 0x0, symName: _main, symObjAddr: 0x0, symBinAddr: 0x100003EBC, symSize: 0x20C }
  - { offsetInCU: 0x9081, offset: 0x9081, size: 0x8, addend: 0x0, symName: __ZNSt3__16vectorIxNS_9allocatorIxEEEC1B8ue170006Ev, symObjAddr: 0x20C, symBinAddr: 0x1000040C8, symSize: 0x2C }
  - { offsetInCU: 0x90A9, offset: 0x90A9, size: 0x8, addend: 0x0, symName: __ZNSt3__16vectorIxNS_9allocatorIxEEE9push_backB8ue170006ERKx, symObjAddr: 0x238, symBinAddr: 0x1000040F4, symSize: 0x6C }
  - { offsetInCU: 0x90DE, offset: 0x90DE, size: 0x8, addend: 0x0, symName: __ZNSt3__16vectorIxNS_9allocatorIxEEE5beginB8ue170006Ev, symObjAddr: 0x2A4, symBinAddr: 0x100004160, symSize: 0x30 }
  - { offsetInCU: 0x9104, offset: 0x9104, size: 0x8, addend: 0x0, symName: __ZNSt3__16vectorIxNS_9allocatorIxEEE3endB8ue170006Ev, symObjAddr: 0x2D4, symBinAddr: 0x100004190, symSize: 0x30 }
  - { offsetInCU: 0x916C, offset: 0x916C, size: 0x8, addend: 0x0, symName: __ZNSt3__114priority_queueIxNS_6vectorIxNS_9allocatorIxEEEENS_7greaterIxEEEC1INS_11__wrap_iterIPxEEvEET_SC_RKS6_, symObjAddr: 0x304, symBinAddr: 0x1000041C0, symSize: 0x44 }
  - { offsetInCU: 0x91CD, offset: 0x91CD, size: 0x8, addend: 0x0, symName: __ZNKSt3__114priority_queueIxNS_6vectorIxNS_9allocatorIxEEEENS_7greaterIxEEE3topB8ue170006Ev, symObjAddr: 0x348, symBinAddr: 0x100004204, symSize: 0x24 }
  - { offsetInCU: 0x91F0, offset: 0x91F0, size: 0x8, addend: 0x0, symName: __ZNSt3__114priority_queueIxNS_6vectorIxNS_9allocatorIxEEEENS_7greaterIxEEE3popEv, symObjAddr: 0x36C, symBinAddr: 0x100004228, symSize: 0x50 }
  - { offsetInCU: 0x9216, offset: 0x9216, size: 0x8, addend: 0x0, symName: __ZNSt3__114priority_queueIxNS_6vectorIxNS_9allocatorIxEEEENS_7greaterIxEEE4pushERKx, symObjAddr: 0x3BC, symBinAddr: 0x100004278, symSize: 0x58 }
  - { offsetInCU: 0x924C, offset: 0x924C, size: 0x8, addend: 0x0, symName: __ZNSt3__114priority_queueIxNS_6vectorIxNS_9allocatorIxEEEENS_7greaterIxEEED1Ev, symObjAddr: 0x414, symBinAddr: 0x1000042D0, symSize: 0x2C }
  - { offsetInCU: 0x9277, offset: 0x9277, size: 0x8, addend: 0x0, symName: __ZNSt3__16vectorIxNS_9allocatorIxEEED1B8ue170006Ev, symObjAddr: 0x44C, symBinAddr: 0x100004308, symSize: 0x2C }
  - { offsetInCU: 0x92A0, offset: 0x92A0, size: 0x8, addend: 0x0, symName: __ZNSt3__114priority_queueIxNS_6vectorIxNS_9allocatorIxEEEENS_7greaterIxEEED2Ev, symObjAddr: 0x478, symBinAddr: 0x100004334, symSize: 0x2C }
  - { offsetInCU: 0x92CB, offset: 0x92CB, size: 0x8, addend: 0x0, symName: __ZNSt3__16vectorIxNS_9allocatorIxEEEC2B8ue170006Ev, symObjAddr: 0x4A4, symBinAddr: 0x100004360, symSize: 0x44 }
  - { offsetInCU: 0x92FD, offset: 0x92FD, size: 0x8, addend: 0x0, symName: __ZNSt3__117__compressed_pairIPxNS_9allocatorIxEEEC1B8ue170006IDnNS_18__default_init_tagEEEOT_OT0_, symObjAddr: 0x4E8, symBinAddr: 0x1000043A4, symSize: 0x3C }
  - { offsetInCU: 0x9353, offset: 0x9353, size: 0x8, addend: 0x0, symName: __ZNSt3__117__compressed_pairIPxNS_9allocatorIxEEEC2B8ue170006IDnNS_18__default_init_tagEEEOT_OT0_, symObjAddr: 0x524, symBinAddr: 0x1000043E0, symSize: 0x40 }
  - { offsetInCU: 0x93AA, offset: 0x93AA, size: 0x8, addend: 0x0, symName: __ZNSt3__122__compressed_pair_elemIPxLi0ELb0EEC2B8ue170006IDnvEEOT_, symObjAddr: 0x564, symBinAddr: 0x100004420, symSize: 0x1C }
  - { offsetInCU: 0x93EA, offset: 0x93EA, size: 0x8, addend: 0x0, symName: __ZNSt3__122__compressed_pair_elemINS_9allocatorIxEELi1ELb1EEC2B8ue170006ENS_18__default_init_tagE, symObjAddr: 0x580, symBinAddr: 0x10000443C, symSize: 0x2C }
  - { offsetInCU: 0x941C, offset: 0x941C, size: 0x8, addend: 0x0, symName: __ZNSt3__19allocatorIxEC2B8ue170006Ev, symObjAddr: 0x5AC, symBinAddr: 0x100004468, symSize: 0x2C }
  - { offsetInCU: 0x9445, offset: 0x9445, size: 0x8, addend: 0x0, symName: __ZNSt3__116__non_trivial_ifILb1ENS_9allocatorIxEEEC2B8ue170006Ev, symObjAddr: 0x5D8, symBinAddr: 0x100004494, symSize: 0x14 }
  - { offsetInCU: 0x946D, offset: 0x946D, size: 0x8, addend: 0x0, symName: __ZNSt3__16vectorIxNS_9allocatorIxEEED2B8ue170006Ev, symObjAddr: 0x5EC, symBinAddr: 0x1000044A8, symSize: 0x3C }
  - { offsetInCU: 0x9495, offset: 0x9495, size: 0x8, addend: 0x0, symName: __ZNSt3__16vectorIxNS_9allocatorIxEEE16__destroy_vectorC1B8ue170006ERS3_, symObjAddr: 0x628, symBinAddr: 0x1000044E4, symSize: 0x34 }
  - { offsetInCU: 0x94CD, offset: 0x94CD, size: 0x8, addend: 0x0, symName: __ZNSt3__16vectorIxNS_9allocatorIxEEE16__destroy_vectorclB8ue170006Ev, symObjAddr: 0x65C, symBinAddr: 0x100004518, symSize: 0x90 }
  - { offsetInCU: 0x94F1, offset: 0x94F1, size: 0x8, addend: 0x0, symName: __ZNSt3__16vectorIxNS_9allocatorIxEEE16__destroy_vectorC2B8ue170006ERS3_, symObjAddr: 0x6EC, symBinAddr: 0x1000045A8, symSize: 0x20 }
  - { offsetInCU: 0x9529, offset: 0x9529, size: 0x8, addend: 0x0, symName: __ZNSt3__16vectorIxNS_9allocatorIxEEE7__clearB8ue170006Ev, symObjAddr: 0x70C, symBinAddr: 0x1000045C8, symSize: 0x28 }
  - { offsetInCU: 0x954D, offset: 0x954D, size: 0x8, addend: 0x0, symName: __ZNKSt3__16vectorIxNS_9allocatorIxEEE17__annotate_deleteB8ue170006Ev, symObjAddr: 0x734, symBinAddr: 0x1000045F0, symSize: 0xB8 }
  - { offsetInCU: 0x9571, offset: 0x9571, size: 0x8, addend: 0x0, symName: __ZNSt3__116allocator_traitsINS_9allocatorIxEEE10deallocateB8ue170006ERS2_Pxm, symObjAddr: 0x7EC, symBinAddr: 0x1000046A8, symSize: 0x34 }
  - { offsetInCU: 0x95B3, offset: 0x95B3, size: 0x8, addend: 0x0, symName: __ZNSt3__16vectorIxNS_9allocatorIxEEE7__allocB8ue170006Ev, symObjAddr: 0x820, symBinAddr: 0x1000046DC, symSize: 0x28 }
  - { offsetInCU: 0x95D7, offset: 0x95D7, size: 0x8, addend: 0x0, symName: __ZNKSt3__16vectorIxNS_9allocatorIxEEE8capacityB8ue170006Ev, symObjAddr: 0x848, symBinAddr: 0x100004704, symSize: 0x40 }
  - { offsetInCU: 0x95FB, offset: 0x95FB, size: 0x8, addend: 0x0, symName: __ZNSt3__16vectorIxNS_9allocatorIxEEE22__base_destruct_at_endB8ue170006EPx, symObjAddr: 0x888, symBinAddr: 0x100004744, symSize: 0xA0 }
  - { offsetInCU: 0x963D, offset: 0x963D, size: 0x8, addend: 0x0, symName: __ZNSt3__116allocator_traitsINS_9allocatorIxEEE7destroyB8ue170006IxvEEvRS2_PT_, symObjAddr: 0x928, symBinAddr: 0x1000047E4, symSize: 0x2C }
  - { offsetInCU: 0x967A, offset: 0x967A, size: 0x8, addend: 0x0, symName: __ZNSt3__19allocatorIxE7destroyB8ue170006EPx, symObjAddr: 0x968, symBinAddr: 0x100004824, symSize: 0x14 }
  - { offsetInCU: 0x96AD, offset: 0x96AD, size: 0x8, addend: 0x0, symName: __ZNKSt3__16vectorIxNS_9allocatorIxEEE31__annotate_contiguous_containerB8ue170006EPKvS5_S5_S5_, symObjAddr: 0x97C, symBinAddr: 0x100004838, symSize: 0x20 }
  - { offsetInCU: 0x96FE, offset: 0x96FE, size: 0x8, addend: 0x0, symName: __ZNKSt3__16vectorIxNS_9allocatorIxEEE4dataB8ue170006Ev, symObjAddr: 0x99C, symBinAddr: 0x100004858, symSize: 0x28 }
  - { offsetInCU: 0x9722, offset: 0x9722, size: 0x8, addend: 0x0, symName: __ZNKSt3__16vectorIxNS_9allocatorIxEEE4sizeB8ue170006Ev, symObjAddr: 0x9C4, symBinAddr: 0x100004880, symSize: 0x28 }
  - { offsetInCU: 0x9747, offset: 0x9747, size: 0x8, addend: 0x0, symName: __ZNSt3__19allocatorIxE10deallocateB8ue170006EPxm, symObjAddr: 0x9EC, symBinAddr: 0x1000048A8, symSize: 0x70 }
  - { offsetInCU: 0x9787, offset: 0x9787, size: 0x8, addend: 0x0, symName: __ZNSt3__117__compressed_pairIPxNS_9allocatorIxEEE6secondB8ue170006Ev, symObjAddr: 0xAE4, symBinAddr: 0x1000049A0, symSize: 0x24 }
  - { offsetInCU: 0x97AB, offset: 0x97AB, size: 0x8, addend: 0x0, symName: __ZNSt3__122__compressed_pair_elemINS_9allocatorIxEELi1ELb1EE5__getB8ue170006Ev, symObjAddr: 0xB08, symBinAddr: 0x1000049C4, symSize: 0x14 }
  - { offsetInCU: 0x97D0, offset: 0x97D0, size: 0x8, addend: 0x0, symName: __ZNKSt3__16vectorIxNS_9allocatorIxEEE9__end_capB8ue170006Ev, symObjAddr: 0xB1C, symBinAddr: 0x1000049D8, symSize: 0x28 }
  - { offsetInCU: 0x97F4, offset: 0x97F4, size: 0x8, addend: 0x0, symName: __ZNKSt3__117__compressed_pairIPxNS_9allocatorIxEEE5firstB8ue170006Ev, symObjAddr: 0xB44, symBinAddr: 0x100004A00, symSize: 0x24 }
  - { offsetInCU: 0x9818, offset: 0x9818, size: 0x8, addend: 0x0, symName: __ZNKSt3__122__compressed_pair_elemIPxLi0ELb0EE5__getB8ue170006Ev, symObjAddr: 0xB68, symBinAddr: 0x100004A24, symSize: 0x14 }
  - { offsetInCU: 0x983D, offset: 0x983D, size: 0x8, addend: 0x0, symName: __ZNSt3__16vectorIxNS_9allocatorIxEEE9__end_capB8ue170006Ev, symObjAddr: 0xB7C, symBinAddr: 0x100004A38, symSize: 0x28 }
  - { offsetInCU: 0x9861, offset: 0x9861, size: 0x8, addend: 0x0, symName: __ZNSt3__16vectorIxNS_9allocatorIxEEE22__construct_one_at_endB8ue170006IJRKxEEEvDpOT_, symObjAddr: 0xBA4, symBinAddr: 0x100004A60, symSize: 0x98 }
  - { offsetInCU: 0x98AD, offset: 0x98AD, size: 0x8, addend: 0x0, symName: __ZNSt3__16vectorIxNS_9allocatorIxEEE21__push_back_slow_pathIRKxEEvOT_, symObjAddr: 0xC3C, symBinAddr: 0x100004AF8, symSize: 0xE0 }
  - { offsetInCU: 0x990A, offset: 0x990A, size: 0x8, addend: 0x0, symName: __ZNSt3__117__compressed_pairIPxNS_9allocatorIxEEE5firstB8ue170006Ev, symObjAddr: 0xD1C, symBinAddr: 0x100004BD8, symSize: 0x24 }
  - { offsetInCU: 0x992E, offset: 0x992E, size: 0x8, addend: 0x0, symName: __ZNSt3__122__compressed_pair_elemIPxLi0ELb0EE5__getB8ue170006Ev, symObjAddr: 0xD40, symBinAddr: 0x100004BFC, symSize: 0x14 }
  - { offsetInCU: 0x996B, offset: 0x996B, size: 0x8, addend: 0x0, symName: __ZNSt3__16vectorIxNS_9allocatorIxEEE21_ConstructTransactionC1B8ue170006ERS3_m, symObjAddr: 0xD54, symBinAddr: 0x100004C10, symSize: 0x3C }
  - { offsetInCU: 0x99B2, offset: 0x99B2, size: 0x8, addend: 0x0, symName: __ZNSt3__116allocator_traitsINS_9allocatorIxEEE9constructB8ue170006IxJRKxEvEEvRS2_PT_DpOT0_, symObjAddr: 0xD90, symBinAddr: 0x100004C4C, symSize: 0x34 }
  - { offsetInCU: 0x9A08, offset: 0x9A08, size: 0x8, addend: 0x0, symName: __ZNSt3__16vectorIxNS_9allocatorIxEEE21_ConstructTransactionD1B8ue170006Ev, symObjAddr: 0xDC4, symBinAddr: 0x100004C80, symSize: 0x2C }
  - { offsetInCU: 0x9A31, offset: 0x9A31, size: 0x8, addend: 0x0, symName: __ZNSt3__16vectorIxNS_9allocatorIxEEE21_ConstructTransactionC2B8ue170006ERS3_m, symObjAddr: 0xDF0, symBinAddr: 0x100004CAC, symSize: 0x44 }
  - { offsetInCU: 0x9A78, offset: 0x9A78, size: 0x8, addend: 0x0, symName: __ZNSt3__19allocatorIxE9constructB8ue170006IxJRKxEEEvPT_DpOT0_, symObjAddr: 0xE34, symBinAddr: 0x100004CF0, symSize: 0x28 }
  - { offsetInCU: 0x9ACD, offset: 0x9ACD, size: 0x8, addend: 0x0, symName: __ZNSt3__16vectorIxNS_9allocatorIxEEE21_ConstructTransactionD2B8ue170006Ev, symObjAddr: 0xE5C, symBinAddr: 0x100004D18, symSize: 0x20 }
  - { offsetInCU: 0x9AF5, offset: 0x9AF5, size: 0x8, addend: 0x0, symName: __ZNKSt3__16vectorIxNS_9allocatorIxEEE11__recommendB8ue170006Em, symObjAddr: 0xE7C, symBinAddr: 0x100004D38, symSize: 0xB4 }
  - { offsetInCU: 0x9B49, offset: 0x9B49, size: 0x8, addend: 0x0, symName: __ZNSt3__114__split_bufferIxRNS_9allocatorIxEEEC1EmmS3_, symObjAddr: 0xF30, symBinAddr: 0x100004DEC, symSize: 0x44 }
  - { offsetInCU: 0x9B9D, offset: 0x9B9D, size: 0x8, addend: 0x0, symName: __ZNSt3__114__split_bufferIxRNS_9allocatorIxEEED1Ev, symObjAddr: 0x1084, symBinAddr: 0x100004F40, symSize: 0x2C }
  - { offsetInCU: 0x9BC6, offset: 0x9BC6, size: 0x8, addend: 0x0, symName: __ZNKSt3__16vectorIxNS_9allocatorIxEEE8max_sizeEv, symObjAddr: 0x10B0, symBinAddr: 0x100004F6C, symSize: 0x74 }
  - { offsetInCU: 0x9BED, offset: 0x9BED, size: 0x8, addend: 0x0, symName: __ZNKSt3__16vectorIxNS_9allocatorIxEEE20__throw_length_errorB8ue170006Ev, symObjAddr: 0x1124, symBinAddr: 0x100004FE0, symSize: 0x1C }
  - { offsetInCU: 0x9C1B, offset: 0x9C1B, size: 0x8, addend: 0x0, symName: __ZNSt3__116allocator_traitsINS_9allocatorIxEEE8max_sizeB8ue170006IS2_vEEmRKS2_, symObjAddr: 0x1198, symBinAddr: 0x100005054, symSize: 0x24 }
  - { offsetInCU: 0x9C49, offset: 0x9C49, size: 0x8, addend: 0x0, symName: __ZNKSt3__16vectorIxNS_9allocatorIxEEE7__allocB8ue170006Ev, symObjAddr: 0x11BC, symBinAddr: 0x100005078, symSize: 0x28 }
  - { offsetInCU: 0x9C6D, offset: 0x9C6D, size: 0x8, addend: 0x0, symName: __ZNSt3__114numeric_limitsIlE3maxB8ue170006Ev, symObjAddr: 0x11E4, symBinAddr: 0x1000050A0, symSize: 0x14 }
  - { offsetInCU: 0x9C95, offset: 0x9C95, size: 0x8, addend: 0x0, symName: __ZNKSt3__16__lessIvvEclB8ue170006ImmEEbRKT_RKT0_, symObjAddr: 0x124C, symBinAddr: 0x100005108, symSize: 0x34 }
  - { offsetInCU: 0x9CE8, offset: 0x9CE8, size: 0x8, addend: 0x0, symName: __ZNKSt3__19allocatorIxE8max_sizeB8ue170006Ev, symObjAddr: 0x1280, symBinAddr: 0x10000513C, symSize: 0x14 }
  - { offsetInCU: 0x9D0D, offset: 0x9D0D, size: 0x8, addend: 0x0, symName: __ZNKSt3__117__compressed_pairIPxNS_9allocatorIxEEE6secondB8ue170006Ev, symObjAddr: 0x1294, symBinAddr: 0x100005150, symSize: 0x24 }
  - { offsetInCU: 0x9D31, offset: 0x9D31, size: 0x8, addend: 0x0, symName: __ZNKSt3__122__compressed_pair_elemINS_9allocatorIxEELi1ELb1EE5__getB8ue170006Ev, symObjAddr: 0x12B8, symBinAddr: 0x100005174, symSize: 0x14 }
  - { offsetInCU: 0x9D56, offset: 0x9D56, size: 0x8, addend: 0x0, symName: __ZNSt3__123__libcpp_numeric_limitsIlLb1EE3maxB8ue170006Ev, symObjAddr: 0x12CC, symBinAddr: 0x100005188, symSize: 0x8 }
  - { offsetInCU: 0x9D69, offset: 0x9D69, size: 0x8, addend: 0x0, symName: __ZNSt12length_errorC1B8ue170006EPKc, symObjAddr: 0x1338, symBinAddr: 0x1000051F4, symSize: 0x34 }
  - { offsetInCU: 0x9D9F, offset: 0x9D9F, size: 0x8, addend: 0x0, symName: __ZNSt12length_errorC2B8ue170006EPKc, symObjAddr: 0x136C, symBinAddr: 0x100005228, symSize: 0x4C }
  - { offsetInCU: 0x9DD6, offset: 0x9DD6, size: 0x8, addend: 0x0, symName: __ZNSt3__114__split_bufferIxRNS_9allocatorIxEEEC2EmmS3_, symObjAddr: 0x140C, symBinAddr: 0x1000052C8, symSize: 0xD4 }
  - { offsetInCU: 0x9E46, offset: 0x9E46, size: 0x8, addend: 0x0, symName: __ZNSt3__117__compressed_pairIPxRNS_9allocatorIxEEEC1B8ue170006IDnS4_EEOT_OT0_, symObjAddr: 0x14E0, symBinAddr: 0x10000539C, symSize: 0x3C }
  - { offsetInCU: 0x9E9D, offset: 0x9E9D, size: 0x8, addend: 0x0, symName: __ZNSt3__114__split_bufferIxRNS_9allocatorIxEEE7__allocB8ue170006Ev, symObjAddr: 0x155C, symBinAddr: 0x100005418, symSize: 0x28 }
  - { offsetInCU: 0x9EC1, offset: 0x9EC1, size: 0x8, addend: 0x0, symName: __ZNSt3__114__split_bufferIxRNS_9allocatorIxEEE9__end_capB8ue170006Ev, symObjAddr: 0x1584, symBinAddr: 0x100005440, symSize: 0x28 }
  - { offsetInCU: 0x9EE4, offset: 0x9EE4, size: 0x8, addend: 0x0, symName: __ZNSt3__117__compressed_pairIPxRNS_9allocatorIxEEEC2B8ue170006IDnS4_EEOT_OT0_, symObjAddr: 0x15AC, symBinAddr: 0x100005468, symSize: 0x48 }
  - { offsetInCU: 0x9F3B, offset: 0x9F3B, size: 0x8, addend: 0x0, symName: __ZNSt3__122__compressed_pair_elemIRNS_9allocatorIxEELi1ELb0EEC2B8ue170006IS3_vEEOT_, symObjAddr: 0x15F4, symBinAddr: 0x1000054B0, symSize: 0x20 }
  - { offsetInCU: 0x9F7C, offset: 0x9F7C, size: 0x8, addend: 0x0, symName: __ZNSt3__19allocatorIxE8allocateB8ue170006Em, symObjAddr: 0x1614, symBinAddr: 0x1000054D0, symSize: 0x84 }
  - { offsetInCU: 0x9FAE, offset: 0x9FAE, size: 0x8, addend: 0x0, symName: __ZNSt3__117__compressed_pairIPxRNS_9allocatorIxEEE6secondB8ue170006Ev, symObjAddr: 0x1718, symBinAddr: 0x1000055D4, symSize: 0x28 }
  - { offsetInCU: 0x9FD2, offset: 0x9FD2, size: 0x8, addend: 0x0, symName: __ZNSt3__122__compressed_pair_elemIRNS_9allocatorIxEELi1ELb0EE5__getB8ue170006Ev, symObjAddr: 0x1740, symBinAddr: 0x1000055FC, symSize: 0x18 }
  - { offsetInCU: 0x9FF7, offset: 0x9FF7, size: 0x8, addend: 0x0, symName: __ZNSt3__117__compressed_pairIPxRNS_9allocatorIxEEE5firstB8ue170006Ev, symObjAddr: 0x1758, symBinAddr: 0x100005614, symSize: 0x24 }
  - { offsetInCU: 0xA01A, offset: 0xA01A, size: 0x8, addend: 0x0, symName: __ZNSt3__116reverse_iteratorIPxEC1B8ue170006ES1_, symObjAddr: 0x1864, symBinAddr: 0x100005720, symSize: 0x34 }
  - { offsetInCU: 0xA051, offset: 0xA051, size: 0x8, addend: 0x0, symName: __ZNKSt3__116reverse_iteratorIPxE4baseB8ue170006Ev, symObjAddr: 0x1898, symBinAddr: 0x100005754, symSize: 0x18 }
  - { offsetInCU: 0xA076, offset: 0xA076, size: 0x8, addend: 0x0, symName: __ZNKSt3__16vectorIxNS_9allocatorIxEEE14__annotate_newB8ue170006Em, symObjAddr: 0x18EC, symBinAddr: 0x1000057A8, symSize: 0xAC }
  - { offsetInCU: 0xA0A9, offset: 0xA0A9, size: 0x8, addend: 0x0, symName: __ZNKSt3__116reverse_iteratorIPxEdeB8ue170006Ev, symObjAddr: 0x1A30, symBinAddr: 0x1000058EC, symSize: 0x28 }
  - { offsetInCU: 0xA0DC, offset: 0xA0DC, size: 0x8, addend: 0x0, symName: __ZNSt3__116reverse_iteratorIPxEppB8ue170006Ev, symObjAddr: 0x1A58, symBinAddr: 0x100005914, symSize: 0x20 }
  - { offsetInCU: 0xA106, offset: 0xA106, size: 0x8, addend: 0x0, symName: __ZNSt3__119__to_address_helperINS_16reverse_iteratorIPxEEvE6__callB8ue170006ERKS3_, symObjAddr: 0x1AF0, symBinAddr: 0x1000059AC, symSize: 0x4C }
  - { offsetInCU: 0xA129, offset: 0xA129, size: 0x8, addend: 0x0, symName: __ZNKSt3__116reverse_iteratorIPxEptB8ue170006Ev, symObjAddr: 0x1B3C, symBinAddr: 0x1000059F8, symSize: 0x24 }
  - { offsetInCU: 0xA170, offset: 0xA170, size: 0x8, addend: 0x0, symName: __ZNKSt3__111__move_loopINS_17_ClassicAlgPolicyEEclB8ue170006INS_16reverse_iteratorIPxEES6_S6_EENS_4pairIT_T1_EES8_T0_S9_, symObjAddr: 0x1DD8, symBinAddr: 0x100005C94, symSize: 0xA0 }
  - { offsetInCU: 0xA1DE, offset: 0xA1DE, size: 0x8, addend: 0x0, symName: __ZNSt3__18_IterOpsINS_17_ClassicAlgPolicyEE11__iter_moveB8ue170006IRNS_16reverse_iteratorIPxEEEENS_9enable_ifIXsr12is_referenceIDTdeclsr3stdE7declvalIRT_EEEEE5valueEDTclsr3stdE4movedeclsr3stdE7declvalISA_EEEEE4typeEOS9_, symObjAddr: 0x1FD8, symBinAddr: 0x100005E94, symSize: 0x28 }
  - { offsetInCU: 0xA20A, offset: 0xA20A, size: 0x8, addend: 0x0, symName: __ZNSt3__18_IterOpsINS_17_ClassicAlgPolicyEE25__validate_iter_referenceB8ue170006IRNS_16reverse_iteratorIPxEEEEvv, symObjAddr: 0x2000, symBinAddr: 0x100005EBC, symSize: 0x4 }
  - { offsetInCU: 0xA228, offset: 0xA228, size: 0x8, addend: 0x0, symName: __ZNSt3__118__unwrap_iter_implINS_16reverse_iteratorIPxEELb0EE8__unwrapB8ue170006ES3_, symObjAddr: 0x2004, symBinAddr: 0x100005EC0, symSize: 0x24 }
  - { offsetInCU: 0xA24A, offset: 0xA24A, size: 0x8, addend: 0x0, symName: __ZNSt3__14pairINS_16reverse_iteratorIPxEES3_EC1B8ue170006ERKS3_S6_, symObjAddr: 0x2028, symBinAddr: 0x100005EE4, symSize: 0x3C }
  - { offsetInCU: 0xA28F, offset: 0xA28F, size: 0x8, addend: 0x0, symName: __ZNSt3__14pairINS_16reverse_iteratorIPxEES3_EC2B8ue170006ERKS3_S6_, symObjAddr: 0x2064, symBinAddr: 0x100005F20, symSize: 0x34 }
  - { offsetInCU: 0xA2D4, offset: 0xA2D4, size: 0x8, addend: 0x0, symName: __ZNSt3__118__unwrap_iter_implINS_16reverse_iteratorIPxEELb0EE8__rewrapB8ue170006ES3_S3_, symObjAddr: 0x2098, symBinAddr: 0x100005F54, symSize: 0x2C }
  - { offsetInCU: 0xA301, offset: 0xA301, size: 0x8, addend: 0x0, symName: __ZNSt3__116reverse_iteratorIPxEC2B8ue170006ES1_, symObjAddr: 0x20C4, symBinAddr: 0x100005F80, symSize: 0x28 }
  - { offsetInCU: 0xA338, offset: 0xA338, size: 0x8, addend: 0x0, symName: __ZNSt3__114__split_bufferIxRNS_9allocatorIxEEED2Ev, symObjAddr: 0x20EC, symBinAddr: 0x100005FA8, symSize: 0x80 }
  - { offsetInCU: 0xA362, offset: 0xA362, size: 0x8, addend: 0x0, symName: __ZNSt3__114__split_bufferIxRNS_9allocatorIxEEE5clearB8ue170006Ev, symObjAddr: 0x216C, symBinAddr: 0x100006028, symSize: 0x28 }
  - { offsetInCU: 0xA386, offset: 0xA386, size: 0x8, addend: 0x0, symName: __ZNKSt3__114__split_bufferIxRNS_9allocatorIxEEE8capacityB8ue170006Ev, symObjAddr: 0x2194, symBinAddr: 0x100006050, symSize: 0x40 }
  - { offsetInCU: 0xA3AA, offset: 0xA3AA, size: 0x8, addend: 0x0, symName: __ZNSt3__114__split_bufferIxRNS_9allocatorIxEEE17__destruct_at_endB8ue170006EPx, symObjAddr: 0x21D4, symBinAddr: 0x100006090, symSize: 0x2C }
  - { offsetInCU: 0xA3DB, offset: 0xA3DB, size: 0x8, addend: 0x0, symName: __ZNSt3__114__split_bufferIxRNS_9allocatorIxEEE17__destruct_at_endB8ue170006EPxNS_17integral_constantIbLb0EEE, symObjAddr: 0x2200, symBinAddr: 0x1000060BC, symSize: 0x94 }
  - { offsetInCU: 0xA41A, offset: 0xA41A, size: 0x8, addend: 0x0, symName: __ZNKSt3__114__split_bufferIxRNS_9allocatorIxEEE9__end_capB8ue170006Ev, symObjAddr: 0x2294, symBinAddr: 0x100006150, symSize: 0x28 }
  - { offsetInCU: 0xA43E, offset: 0xA43E, size: 0x8, addend: 0x0, symName: __ZNKSt3__117__compressed_pairIPxRNS_9allocatorIxEEE5firstB8ue170006Ev, symObjAddr: 0x22BC, symBinAddr: 0x100006178, symSize: 0x24 }
  - { offsetInCU: 0xA462, offset: 0xA462, size: 0x8, addend: 0x0, symName: __ZNSt3__16vectorIxNS_9allocatorIxEEE11__make_iterB8ue170006EPx, symObjAddr: 0x22E0, symBinAddr: 0x10000619C, symSize: 0x30 }
  - { offsetInCU: 0xA494, offset: 0xA494, size: 0x8, addend: 0x0, symName: __ZNSt3__111__wrap_iterIPxEC1B8ue170006ES1_, symObjAddr: 0x2310, symBinAddr: 0x1000061CC, symSize: 0x34 }
  - { offsetInCU: 0xA4CB, offset: 0xA4CB, size: 0x8, addend: 0x0, symName: __ZNSt3__111__wrap_iterIPxEC2B8ue170006ES1_, symObjAddr: 0x2344, symBinAddr: 0x100006200, symSize: 0x20 }
  - { offsetInCU: 0xA502, offset: 0xA502, size: 0x8, addend: 0x0, symName: __ZNSt3__114priority_queueIxNS_6vectorIxNS_9allocatorIxEEEENS_7greaterIxEEEC2INS_11__wrap_iterIPxEEvEET_SC_RKS6_, symObjAddr: 0x2364, symBinAddr: 0x100006220, symSize: 0xA8 }
  - { offsetInCU: 0xA563, offset: 0xA563, size: 0x8, addend: 0x0, symName: __ZNSt3__16vectorIxNS_9allocatorIxEEEC1INS_11__wrap_iterIPxEELi0EEET_S8_, symObjAddr: 0x240C, symBinAddr: 0x1000062C8, symSize: 0x3C }
  - { offsetInCU: 0xA5BA, offset: 0xA5BA, size: 0x8, addend: 0x0, symName: __ZNSt3__16vectorIxNS_9allocatorIxEEEC2INS_11__wrap_iterIPxEELi0EEET_S8_, symObjAddr: 0x2488, symBinAddr: 0x100006344, symSize: 0x94 }
  - { offsetInCU: 0xA62E, offset: 0xA62E, size: 0x8, addend: 0x0, symName: __ZNSt3__16vectorIxNS_9allocatorIxEEE16__init_with_sizeB8ue170006INS_11__wrap_iterIPxEES7_EEvT_T0_m, symObjAddr: 0x2558, symBinAddr: 0x100006414, symSize: 0xD0 }
  - { offsetInCU: 0xA6A0, offset: 0xA6A0, size: 0x8, addend: 0x0, symName: __ZNKSt3__111__wrap_iterIPxE4baseB8ue170006Ev, symObjAddr: 0x26A0, symBinAddr: 0x10000655C, symSize: 0x18 }
  - { offsetInCU: 0xA6C5, offset: 0xA6C5, size: 0x8, addend: 0x0, symName: __ZNSt3__16vectorIxNS_9allocatorIxEEE11__vallocateB8ue170006Em, symObjAddr: 0x26F8, symBinAddr: 0x1000065B4, symSize: 0xAC }
  - { offsetInCU: 0xA706, offset: 0xA706, size: 0x8, addend: 0x0, symName: __ZNSt3__16vectorIxNS_9allocatorIxEEE18__construct_at_endINS_11__wrap_iterIPxEES7_EEvT_T0_m, symObjAddr: 0x27A4, symBinAddr: 0x100006660, symSize: 0xA4 }
  - { offsetInCU: 0xA77B, offset: 0xA77B, size: 0x8, addend: 0x0, symName: __ZNSt3__128__exception_guard_exceptionsINS_6vectorIxNS_9allocatorIxEEE16__destroy_vectorEE10__completeB8ue170006Ev, symObjAddr: 0x2848, symBinAddr: 0x100006704, symSize: 0x1C }
  - { offsetInCU: 0xA79F, offset: 0xA79F, size: 0x8, addend: 0x0, symName: __ZNSt3__128__exception_guard_exceptionsINS_6vectorIxNS_9allocatorIxEEE16__destroy_vectorEED1B8ue170006Ev, symObjAddr: 0x2864, symBinAddr: 0x100006720, symSize: 0x2C }
  - { offsetInCU: 0xA7C7, offset: 0xA7C7, size: 0x8, addend: 0x0, symName: __ZNSt3__128__exception_guard_exceptionsINS_6vectorIxNS_9allocatorIxEEE16__destroy_vectorEEC1B8ue170006ES5_, symObjAddr: 0x2890, symBinAddr: 0x10000674C, symSize: 0x34 }
  - { offsetInCU: 0xA7FE, offset: 0xA7FE, size: 0x8, addend: 0x0, symName: __ZNSt3__128__exception_guard_exceptionsINS_6vectorIxNS_9allocatorIxEEE16__destroy_vectorEEC2B8ue170006ES5_, symObjAddr: 0x28C4, symBinAddr: 0x100006780, symSize: 0x24 }
  - { offsetInCU: 0xA84D, offset: 0xA84D, size: 0x8, addend: 0x0, symName: __ZNSt3__14pairIPxS1_EC1B8ue170006ERKS1_S4_, symObjAddr: 0x2BBC, symBinAddr: 0x100006A78, symSize: 0x3C }
  - { offsetInCU: 0xA892, offset: 0xA892, size: 0x8, addend: 0x0, symName: __ZNSt3__14pairIPxS1_EC2B8ue170006ERKS1_S4_, symObjAddr: 0x2BF8, symBinAddr: 0x100006AB4, symSize: 0x34 }
  - { offsetInCU: 0xA8D7, offset: 0xA8D7, size: 0x8, addend: 0x0, symName: __ZNSt3__118__unwrap_iter_implINS_11__wrap_iterIPxEELb1EE8__unwrapB8ue170006ES3_, symObjAddr: 0x2C2C, symBinAddr: 0x100006AE8, symSize: 0x28 }
  - { offsetInCU: 0xA904, offset: 0xA904, size: 0x8, addend: 0x0, symName: __ZNSt3__119__to_address_helperINS_11__wrap_iterIPxEEvE6__callB8ue170006ERKS3_, symObjAddr: 0x2C78, symBinAddr: 0x100006B34, symSize: 0x30 }
  - { offsetInCU: 0xA927, offset: 0xA927, size: 0x8, addend: 0x0, symName: __ZNSt3__114pointer_traitsINS_11__wrap_iterIPxEEE10to_addressB8ue170006ES3_, symObjAddr: 0x2CA8, symBinAddr: 0x100006B64, symSize: 0x2C }
  - { offsetInCU: 0xA949, offset: 0xA949, size: 0x8, addend: 0x0, symName: __ZNSt3__129_AllocatorDestroyRangeReverseINS_9allocatorIxEEPxEC1B8ue170006ERS2_RS3_S6_, symObjAddr: 0x2D20, symBinAddr: 0x100006BDC, symSize: 0x44 }
  - { offsetInCU: 0xA99F, offset: 0xA99F, size: 0x8, addend: 0x0, symName: __ZNSt3__116allocator_traitsINS_9allocatorIxEEE9constructB8ue170006IxJRxEvEEvRS2_PT_DpOT0_, symObjAddr: 0x2D64, symBinAddr: 0x100006C20, symSize: 0x34 }
  - { offsetInCU: 0xA9F6, offset: 0xA9F6, size: 0x8, addend: 0x0, symName: __ZNSt3__128__exception_guard_exceptionsINS_29_AllocatorDestroyRangeReverseINS_9allocatorIxEEPxEEE10__completeB8ue170006Ev, symObjAddr: 0x2D98, symBinAddr: 0x100006C54, symSize: 0x1C }
  - { offsetInCU: 0xAA1A, offset: 0xAA1A, size: 0x8, addend: 0x0, symName: __ZNSt3__128__exception_guard_exceptionsINS_29_AllocatorDestroyRangeReverseINS_9allocatorIxEEPxEEED1B8ue170006Ev, symObjAddr: 0x2DB4, symBinAddr: 0x100006C70, symSize: 0x2C }
  - { offsetInCU: 0xAA42, offset: 0xAA42, size: 0x8, addend: 0x0, symName: __ZNSt3__128__exception_guard_exceptionsINS_29_AllocatorDestroyRangeReverseINS_9allocatorIxEEPxEEEC1B8ue170006ES5_, symObjAddr: 0x2DE0, symBinAddr: 0x100006C9C, symSize: 0x34 }
  - { offsetInCU: 0xAA7A, offset: 0xAA7A, size: 0x8, addend: 0x0, symName: __ZNSt3__128__exception_guard_exceptionsINS_29_AllocatorDestroyRangeReverseINS_9allocatorIxEEPxEEEC2B8ue170006ES5_, symObjAddr: 0x2E14, symBinAddr: 0x100006CD0, symSize: 0x30 }
  - { offsetInCU: 0xAAB2, offset: 0xAAB2, size: 0x8, addend: 0x0, symName: __ZNSt3__129_AllocatorDestroyRangeReverseINS_9allocatorIxEEPxEC2B8ue170006ERS2_RS3_S6_, symObjAddr: 0x2E44, symBinAddr: 0x100006D00, symSize: 0x38 }
  - { offsetInCU: 0xAB08, offset: 0xAB08, size: 0x8, addend: 0x0, symName: __ZNSt3__19allocatorIxE9constructB8ue170006IxJRxEEEvPT_DpOT0_, symObjAddr: 0x2E7C, symBinAddr: 0x100006D38, symSize: 0x28 }
  - { offsetInCU: 0xAB5C, offset: 0xAB5C, size: 0x8, addend: 0x0, symName: __ZNSt3__128__exception_guard_exceptionsINS_29_AllocatorDestroyRangeReverseINS_9allocatorIxEEPxEEED2B8ue170006Ev, symObjAddr: 0x2EA4, symBinAddr: 0x100006D60, symSize: 0x48 }
  - { offsetInCU: 0xAB85, offset: 0xAB85, size: 0x8, addend: 0x0, symName: __ZNKSt3__129_AllocatorDestroyRangeReverseINS_9allocatorIxEEPxEclB8ue170006Ev, symObjAddr: 0x2EEC, symBinAddr: 0x100006DA8, symSize: 0x68 }
  - { offsetInCU: 0xABA9, offset: 0xABA9, size: 0x8, addend: 0x0, symName: __ZNSt3__118__unwrap_iter_implIPxLb1EE8__unwrapB8ue170006ES1_, symObjAddr: 0x2FC4, symBinAddr: 0x100006E80, symSize: 0x24 }
  - { offsetInCU: 0xABCC, offset: 0xABCC, size: 0x8, addend: 0x0, symName: __ZNSt3__118__unwrap_iter_implIPxLb1EE8__rewrapB8ue170006ES1_S1_, symObjAddr: 0x2FE8, symBinAddr: 0x100006EA4, symSize: 0x50 }
  - { offsetInCU: 0xABFC, offset: 0xABFC, size: 0x8, addend: 0x0, symName: __ZNSt3__128__exception_guard_exceptionsINS_6vectorIxNS_9allocatorIxEEE16__destroy_vectorEED2B8ue170006Ev, symObjAddr: 0x3038, symBinAddr: 0x100006EF4, symSize: 0x48 }
  - { offsetInCU: 0xAC25, offset: 0xAC25, size: 0x8, addend: 0x0, symName: __ZNKSt3__111__wrap_iterIPxEplB8ue170006El, symObjAddr: 0x3430, symBinAddr: 0x1000072EC, symSize: 0x3C }
  - { offsetInCU: 0xAC65, offset: 0xAC65, size: 0x8, addend: 0x0, symName: __ZNKSt3__17greaterIxEclB8ue170006ERKxS3_, symObjAddr: 0x346C, symBinAddr: 0x100007328, symSize: 0x34 }
  - { offsetInCU: 0xACA8, offset: 0xACA8, size: 0x8, addend: 0x0, symName: __ZNKSt3__111__wrap_iterIPxEdeB8ue170006Ev, symObjAddr: 0x34A0, symBinAddr: 0x10000735C, symSize: 0x18 }
  - { offsetInCU: 0xACCD, offset: 0xACCD, size: 0x8, addend: 0x0, symName: __ZNSt3__111__wrap_iterIPxEppB8ue170006Ev, symObjAddr: 0x34B8, symBinAddr: 0x100007374, symSize: 0x20 }
  - { offsetInCU: 0xACF2, offset: 0xACF2, size: 0x8, addend: 0x0, symName: __ZNSt3__18_IterOpsINS_17_ClassicAlgPolicyEE11__iter_moveB8ue170006IRNS_11__wrap_iterIPxEEEENS_9enable_ifIXsr12is_referenceIDTdeclsr3stdE7declvalIRT_EEEEE5valueEDTclsr3stdE4movedeclsr3stdE7declvalISA_EEEEE4typeEOS9_, symObjAddr: 0x34D8, symBinAddr: 0x100007394, symSize: 0x28 }
  - { offsetInCU: 0xAD1E, offset: 0xAD1E, size: 0x8, addend: 0x0, symName: __ZNSt3__18_IterOpsINS_17_ClassicAlgPolicyEE25__validate_iter_referenceB8ue170006IRNS_11__wrap_iterIPxEEEEvv, symObjAddr: 0x3500, symBinAddr: 0x1000073BC, symSize: 0x4 }
  - { offsetInCU: 0xAD3C, offset: 0xAD3C, size: 0x8, addend: 0x0, symName: __ZNSt3__111__wrap_iterIPxEpLB8ue170006El, symObjAddr: 0x3504, symBinAddr: 0x1000073C0, symSize: 0x28 }
  - { offsetInCU: 0xAD6F, offset: 0xAD6F, size: 0x8, addend: 0x0, symName: __ZNKSt3__16vectorIxNS_9allocatorIxEEE5frontB8ue170006Ev, symObjAddr: 0x352C, symBinAddr: 0x1000073E8, symSize: 0x18 }
  - { offsetInCU: 0xAD93, offset: 0xAD93, size: 0x8, addend: 0x0, symName: __ZNSt3__16vectorIxNS_9allocatorIxEEE8pop_backEv, symObjAddr: 0x359C, symBinAddr: 0x100007458, symSize: 0x2C }
  - { offsetInCU: 0xADBA, offset: 0xADBA, size: 0x8, addend: 0x0, symName: __ZNSt3__111__wrap_iterIPxEmmB8ue170006Ev, symObjAddr: 0x3858, symBinAddr: 0x100007714, symSize: 0x20 }
  - { offsetInCU: 0xADDF, offset: 0xADDF, size: 0x8, addend: 0x0, symName: __ZNSt3__16vectorIxNS_9allocatorIxEEE17__destruct_at_endB8ue170006EPx, symObjAddr: 0x3A28, symBinAddr: 0x1000078E4, symSize: 0x4C }
  - { offsetInCU: 0xAE21, offset: 0xAE21, size: 0x8, addend: 0x0, symName: __ZNKSt3__16vectorIxNS_9allocatorIxEEE17__annotate_shrinkB8ue170006Em, symObjAddr: 0x3A74, symBinAddr: 0x100007930, symSize: 0xB4 }
...
